
src/kernel:     file format elf64-littleriscv


Disassembly of section .text:

0000000080200000 <_entry>:
    80200000:	00816297          	auipc	t0,0x816
    80200004:	05028293          	addi	t0,t0,80 # 80a16050 <__first_boot_magic>
    80200008:	0002b303          	ld	t1,0(t0)
    8020000c:	6399                	lui	t2,0x6
    8020000e:	a5a3839b          	addiw	t2,t2,-1446
    80200012:	00731863          	bne	t1,t2,80200022 <_secondary_boot>
    80200016:	0083f117          	auipc	sp,0x83f
    8020001a:	fea10113          	addi	sp,sp,-22 # 80a3f000 <bcache>
    8020001e:	3ca0a0ef          	jal	ra,8020a3e8 <__get_boot_hartid>

0000000080200022 <_secondary_boot>:
    80200022:	00000293          	li	t0,0
    80200026:	00150293          	addi	t0,a0,1
    8020002a:	02be                	slli	t0,t0,0xf
    8020002c:	00817117          	auipc	sp,0x817
    80200030:	fd410113          	addi	sp,sp,-44 # 80a17000 <boot_stack>
    80200034:	9116                	add	sp,sp,t0
    80200036:	1e20a0ef          	jal	ra,8020a218 <main>

000000008020003a <loop>:
    8020003a:	a001                	j	8020003a <loop>

000000008020003c <binit>:

extern struct fs FatFs[FSNUM];
extern int disk_init_flag;
void
binit(void)
{
    8020003c:	7139                	addi	sp,sp,-64
    8020003e:	fc06                	sd	ra,56(sp)
    80200040:	f822                	sd	s0,48(sp)
    80200042:	f426                	sd	s1,40(sp)
    80200044:	f04a                	sd	s2,32(sp)
    80200046:	ec4e                	sd	s3,24(sp)
    80200048:	e852                	sd	s4,16(sp)
    8020004a:	e456                	sd	s5,8(sp)
    8020004c:	0080                	addi	s0,sp,64
  struct buf *b;

  initlock(&bcache.lock, "bcache");
    8020004e:	00012597          	auipc	a1,0x12
    80200052:	fb258593          	addi	a1,a1,-78 # 80212000 <rodata_start>
    80200056:	0083f517          	auipc	a0,0x83f
    8020005a:	faa50513          	addi	a0,a0,-86 # 80a3f000 <bcache>
    8020005e:	00008097          	auipc	ra,0x8
    80200062:	2d4080e7          	jalr	724(ra) # 80208332 <initlock>
  disk_init_flag = 0;
    80200066:	00848797          	auipc	a5,0x848
    8020006a:	1207ad23          	sw	zero,314(a5) # 80a481a0 <disk_init_flag>
  // Create linked list of buffers
  bcache.head.prev = &bcache.head;
    8020006e:	00843797          	auipc	a5,0x843
    80200072:	f9278793          	addi	a5,a5,-110 # 80a43000 <bcache+0x4000>
    80200076:	00843717          	auipc	a4,0x843
    8020007a:	5f270713          	addi	a4,a4,1522 # 80a43668 <bcache+0x4668>
    8020007e:	6ae7b823          	sd	a4,1712(a5)
  bcache.head.next = &bcache.head;
    80200082:	6ae7bc23          	sd	a4,1720(a5)
  for(b = bcache.buf; b < bcache.buf+NBUF; b++){
    80200086:	0083f497          	auipc	s1,0x83f
    8020008a:	f9248493          	addi	s1,s1,-110 # 80a3f018 <bcache+0x18>
    b->valid= 0;
    b->refcnt = 0;
    b->sectorno = ~0;
    8020008e:	5a7d                	li	s4,-1
    b->dev = ~0;
    b->next = bcache.head.next;
    80200090:	893e                	mv	s2,a5
    b->prev = &bcache.head;
    80200092:	89ba                	mv	s3,a4
    initsleeplock(&b->lock, "buffer");
    80200094:	00012a97          	auipc	s5,0x12
    80200098:	f74a8a93          	addi	s5,s5,-140 # 80212008 <rodata_start+0x8>
    b->valid= 0;
    8020009c:	0004a023          	sw	zero,0(s1)
    b->refcnt = 0;
    802000a0:	0404a023          	sw	zero,64(s1)
    b->sectorno = ~0;
    802000a4:	0144a623          	sw	s4,12(s1)
    b->dev = ~0;
    802000a8:	0144a423          	sw	s4,8(s1)
    b->next = bcache.head.next;
    802000ac:	6b893783          	ld	a5,1720(s2)
    802000b0:	e8bc                	sd	a5,80(s1)
    b->prev = &bcache.head;
    802000b2:	0534b423          	sd	s3,72(s1)
    initsleeplock(&b->lock, "buffer");
    802000b6:	85d6                	mv	a1,s5
    802000b8:	01048513          	addi	a0,s1,16
    802000bc:	00008097          	auipc	ra,0x8
    802000c0:	356080e7          	jalr	854(ra) # 80208412 <initsleeplock>
    bcache.head.next->prev = b;
    802000c4:	6b893783          	ld	a5,1720(s2)
    802000c8:	e7a4                	sd	s1,72(a5)
    bcache.head.next = b;
    802000ca:	6a993c23          	sd	s1,1720(s2)
  for(b = bcache.buf; b < bcache.buf+NBUF; b++){
    802000ce:	25848493          	addi	s1,s1,600
    802000d2:	fd3495e3          	bne	s1,s3,8020009c <binit+0x60>
  }
  #ifdef DEBUG
  printf("binit\n");
    802000d6:	00012517          	auipc	a0,0x12
    802000da:	f3a50513          	addi	a0,a0,-198 # 80212010 <rodata_start+0x10>
    802000de:	00008097          	auipc	ra,0x8
    802000e2:	652080e7          	jalr	1618(ra) # 80208730 <printf>
  #endif
}
    802000e6:	70e2                	ld	ra,56(sp)
    802000e8:	7442                	ld	s0,48(sp)
    802000ea:	74a2                	ld	s1,40(sp)
    802000ec:	7902                	ld	s2,32(sp)
    802000ee:	69e2                	ld	s3,24(sp)
    802000f0:	6a42                	ld	s4,16(sp)
    802000f2:	6aa2                	ld	s5,8(sp)
    802000f4:	6121                	addi	sp,sp,64
    802000f6:	8082                	ret

00000000802000f8 <bread>:
  panic("bget: no buffers");
}

// Return a locked buf with the contents of the indicated block.
struct buf* 
bread(uint dev, uint sectorno) {
    802000f8:	7179                	addi	sp,sp,-48
    802000fa:	f406                	sd	ra,40(sp)
    802000fc:	f022                	sd	s0,32(sp)
    802000fe:	ec26                	sd	s1,24(sp)
    80200100:	e84a                	sd	s2,16(sp)
    80200102:	e44e                	sd	s3,8(sp)
    80200104:	1800                	addi	s0,sp,48
    80200106:	892a                	mv	s2,a0
    80200108:	89ae                	mv	s3,a1
  acquire(&bcache.lock);
    8020010a:	0083f517          	auipc	a0,0x83f
    8020010e:	ef650513          	addi	a0,a0,-266 # 80a3f000 <bcache>
    80200112:	00008097          	auipc	ra,0x8
    80200116:	264080e7          	jalr	612(ra) # 80208376 <acquire>
  for(b = bcache.head.next; b != &bcache.head; b = b->next){
    8020011a:	00843497          	auipc	s1,0x843
    8020011e:	59e4b483          	ld	s1,1438(s1) # 80a436b8 <bcache+0x46b8>
    80200122:	00843797          	auipc	a5,0x843
    80200126:	54678793          	addi	a5,a5,1350 # 80a43668 <bcache+0x4668>
    8020012a:	02f48f63          	beq	s1,a5,80200168 <bread+0x70>
    8020012e:	873e                	mv	a4,a5
    80200130:	a021                	j	80200138 <bread+0x40>
    80200132:	68a4                	ld	s1,80(s1)
    80200134:	02e48a63          	beq	s1,a4,80200168 <bread+0x70>
    if(b->dev == dev && b->sectorno == sectorno){
    80200138:	449c                	lw	a5,8(s1)
    8020013a:	ff279ce3          	bne	a5,s2,80200132 <bread+0x3a>
    8020013e:	44dc                	lw	a5,12(s1)
    80200140:	ff3799e3          	bne	a5,s3,80200132 <bread+0x3a>
      b->refcnt++;
    80200144:	40bc                	lw	a5,64(s1)
    80200146:	2785                	addiw	a5,a5,1
    80200148:	c0bc                	sw	a5,64(s1)
      release(&bcache.lock);
    8020014a:	0083f517          	auipc	a0,0x83f
    8020014e:	eb650513          	addi	a0,a0,-330 # 80a3f000 <bcache>
    80200152:	00008097          	auipc	ra,0x8
    80200156:	278080e7          	jalr	632(ra) # 802083ca <release>
      acquiresleep(&b->lock);
    8020015a:	01048513          	addi	a0,s1,16
    8020015e:	00008097          	auipc	ra,0x8
    80200162:	2ee080e7          	jalr	750(ra) # 8020844c <acquiresleep>
      return b;
    80200166:	a8b9                	j	802001c4 <bread+0xcc>
  for(b = bcache.head.prev; b != &bcache.head; b = b->prev){
    80200168:	00843497          	auipc	s1,0x843
    8020016c:	5484b483          	ld	s1,1352(s1) # 80a436b0 <bcache+0x46b0>
    80200170:	00843797          	auipc	a5,0x843
    80200174:	4f878793          	addi	a5,a5,1272 # 80a43668 <bcache+0x4668>
    80200178:	00f48863          	beq	s1,a5,80200188 <bread+0x90>
    8020017c:	873e                	mv	a4,a5
    if(b->refcnt == 0) {
    8020017e:	40bc                	lw	a5,64(s1)
    80200180:	cf81                	beqz	a5,80200198 <bread+0xa0>
  for(b = bcache.head.prev; b != &bcache.head; b = b->prev){
    80200182:	64a4                	ld	s1,72(s1)
    80200184:	fee49de3          	bne	s1,a4,8020017e <bread+0x86>
  panic("bget: no buffers");
    80200188:	00012517          	auipc	a0,0x12
    8020018c:	e9050513          	addi	a0,a0,-368 # 80212018 <rodata_start+0x18>
    80200190:	00008097          	auipc	ra,0x8
    80200194:	556080e7          	jalr	1366(ra) # 802086e6 <panic>
      b->dev = dev;
    80200198:	0124a423          	sw	s2,8(s1)
      b->sectorno = sectorno;
    8020019c:	0134a623          	sw	s3,12(s1)
      b->valid = 0;
    802001a0:	0004a023          	sw	zero,0(s1)
      b->refcnt = 1;
    802001a4:	4785                	li	a5,1
    802001a6:	c0bc                	sw	a5,64(s1)
      release(&bcache.lock);
    802001a8:	0083f517          	auipc	a0,0x83f
    802001ac:	e5850513          	addi	a0,a0,-424 # 80a3f000 <bcache>
    802001b0:	00008097          	auipc	ra,0x8
    802001b4:	21a080e7          	jalr	538(ra) # 802083ca <release>
      acquiresleep(&b->lock);
    802001b8:	01048513          	addi	a0,s1,16
    802001bc:	00008097          	auipc	ra,0x8
    802001c0:	290080e7          	jalr	656(ra) # 8020844c <acquiresleep>
  struct buf *b;
  b = bget(dev, sectorno);

  if (!b->valid) {
    802001c4:	409c                	lw	a5,0(s1)
    802001c6:	e79d                	bnez	a5,802001f4 <bread+0xfc>
    FatFs[dev].disk_read(b,FatFs[dev].image);
    802001c8:	1902                	slli	s2,s2,0x20
    802001ca:	02095913          	srli	s2,s2,0x20
    802001ce:	6715                	lui	a4,0x5
    802001d0:	9b870513          	addi	a0,a4,-1608 # 49b8 <_entry-0x801fb648>
    802001d4:	02a90933          	mul	s2,s2,a0
    802001d8:	00855797          	auipc	a5,0x855
    802001dc:	9d878793          	addi	a5,a5,-1576 # 80a54bb0 <FatFs>
    802001e0:	993e                	add	s2,s2,a5
    802001e2:	974a                	add	a4,a4,s2
    802001e4:	9a873783          	ld	a5,-1624(a4)
    802001e8:	00893583          	ld	a1,8(s2)
    802001ec:	8526                	mv	a0,s1
    802001ee:	9782                	jalr	a5
    b->valid = 1;
    802001f0:	4785                	li	a5,1
    802001f2:	c09c                	sw	a5,0(s1)
  }
  
  return b;
}
    802001f4:	8526                	mv	a0,s1
    802001f6:	70a2                	ld	ra,40(sp)
    802001f8:	7402                	ld	s0,32(sp)
    802001fa:	64e2                	ld	s1,24(sp)
    802001fc:	6942                	ld	s2,16(sp)
    802001fe:	69a2                	ld	s3,8(sp)
    80200200:	6145                	addi	sp,sp,48
    80200202:	8082                	ret

0000000080200204 <bwrite>:

// Write b's contents to disk.  Must be locked.
void 
bwrite(uint dev, struct buf *b) {
    80200204:	1101                	addi	sp,sp,-32
    80200206:	ec06                	sd	ra,24(sp)
    80200208:	e822                	sd	s0,16(sp)
    8020020a:	e426                	sd	s1,8(sp)
    8020020c:	e04a                	sd	s2,0(sp)
    8020020e:	1000                	addi	s0,sp,32
    80200210:	84aa                	mv	s1,a0
    80200212:	892e                	mv	s2,a1

  if(!holdingsleep(&b->lock))
    80200214:	01058513          	addi	a0,a1,16
    80200218:	00008097          	auipc	ra,0x8
    8020021c:	2c2080e7          	jalr	706(ra) # 802084da <holdingsleep>
    80200220:	c915                	beqz	a0,80200254 <bwrite+0x50>
    panic("bwrite");

  FatFs[dev].disk_write(b,FatFs[dev].image);
    80200222:	02049513          	slli	a0,s1,0x20
    80200226:	9101                	srli	a0,a0,0x20
    80200228:	6795                	lui	a5,0x5
    8020022a:	9b878493          	addi	s1,a5,-1608 # 49b8 <_entry-0x801fb648>
    8020022e:	02950533          	mul	a0,a0,s1
    80200232:	00855497          	auipc	s1,0x855
    80200236:	97e48493          	addi	s1,s1,-1666 # 80a54bb0 <FatFs>
    8020023a:	9526                	add	a0,a0,s1
    8020023c:	97aa                	add	a5,a5,a0
    8020023e:	9b07b783          	ld	a5,-1616(a5)
    80200242:	650c                	ld	a1,8(a0)
    80200244:	854a                	mv	a0,s2
    80200246:	9782                	jalr	a5
}
    80200248:	60e2                	ld	ra,24(sp)
    8020024a:	6442                	ld	s0,16(sp)
    8020024c:	64a2                	ld	s1,8(sp)
    8020024e:	6902                	ld	s2,0(sp)
    80200250:	6105                	addi	sp,sp,32
    80200252:	8082                	ret
    panic("bwrite");
    80200254:	00012517          	auipc	a0,0x12
    80200258:	ddc50513          	addi	a0,a0,-548 # 80212030 <rodata_start+0x30>
    8020025c:	00008097          	auipc	ra,0x8
    80200260:	48a080e7          	jalr	1162(ra) # 802086e6 <panic>

0000000080200264 <brelse>:

// Release a locked buffer.
// Move to the head of the most-recently-used list.
void
brelse(struct buf *b)
{
    80200264:	1101                	addi	sp,sp,-32
    80200266:	ec06                	sd	ra,24(sp)
    80200268:	e822                	sd	s0,16(sp)
    8020026a:	e426                	sd	s1,8(sp)
    8020026c:	e04a                	sd	s2,0(sp)
    8020026e:	1000                	addi	s0,sp,32
    80200270:	84aa                	mv	s1,a0
  
  if(!holdingsleep(&b->lock))
    80200272:	01050913          	addi	s2,a0,16
    80200276:	854a                	mv	a0,s2
    80200278:	00008097          	auipc	ra,0x8
    8020027c:	262080e7          	jalr	610(ra) # 802084da <holdingsleep>
    80200280:	c92d                	beqz	a0,802002f2 <brelse+0x8e>
    panic("brelse");
    
  releasesleep(&b->lock);//?????????
    80200282:	854a                	mv	a0,s2
    80200284:	00008097          	auipc	ra,0x8
    80200288:	212080e7          	jalr	530(ra) # 80208496 <releasesleep>
  acquire(&bcache.lock);
    8020028c:	0083f517          	auipc	a0,0x83f
    80200290:	d7450513          	addi	a0,a0,-652 # 80a3f000 <bcache>
    80200294:	00008097          	auipc	ra,0x8
    80200298:	0e2080e7          	jalr	226(ra) # 80208376 <acquire>
  b->refcnt--;
    8020029c:	40bc                	lw	a5,64(s1)
    8020029e:	37fd                	addiw	a5,a5,-1
    802002a0:	0007871b          	sext.w	a4,a5
    802002a4:	c0bc                	sw	a5,64(s1)
  if (b->refcnt == 0) {
    802002a6:	eb05                	bnez	a4,802002d6 <brelse+0x72>
    // no one is waiting for it.
    b->next->prev = b->prev;
    802002a8:	68bc                	ld	a5,80(s1)
    802002aa:	64b8                	ld	a4,72(s1)
    802002ac:	e7b8                	sd	a4,72(a5)
    b->prev->next = b->next;
    802002ae:	64bc                	ld	a5,72(s1)
    802002b0:	68b8                	ld	a4,80(s1)
    802002b2:	ebb8                	sd	a4,80(a5)
    b->next = bcache.head.next;
    802002b4:	00843797          	auipc	a5,0x843
    802002b8:	d4c78793          	addi	a5,a5,-692 # 80a43000 <bcache+0x4000>
    802002bc:	6b87b703          	ld	a4,1720(a5)
    802002c0:	e8b8                	sd	a4,80(s1)
    b->prev = &bcache.head;
    802002c2:	00843717          	auipc	a4,0x843
    802002c6:	3a670713          	addi	a4,a4,934 # 80a43668 <bcache+0x4668>
    802002ca:	e4b8                	sd	a4,72(s1)
    bcache.head.next->prev = b;
    802002cc:	6b87b703          	ld	a4,1720(a5)
    802002d0:	e724                	sd	s1,72(a4)
    bcache.head.next = b;
    802002d2:	6a97bc23          	sd	s1,1720(a5)
  }
  release(&bcache.lock);
    802002d6:	0083f517          	auipc	a0,0x83f
    802002da:	d2a50513          	addi	a0,a0,-726 # 80a3f000 <bcache>
    802002de:	00008097          	auipc	ra,0x8
    802002e2:	0ec080e7          	jalr	236(ra) # 802083ca <release>
  
}
    802002e6:	60e2                	ld	ra,24(sp)
    802002e8:	6442                	ld	s0,16(sp)
    802002ea:	64a2                	ld	s1,8(sp)
    802002ec:	6902                	ld	s2,0(sp)
    802002ee:	6105                	addi	sp,sp,32
    802002f0:	8082                	ret
    panic("brelse");
    802002f2:	00012517          	auipc	a0,0x12
    802002f6:	d4650513          	addi	a0,a0,-698 # 80212038 <rodata_start+0x38>
    802002fa:	00008097          	auipc	ra,0x8
    802002fe:	3ec080e7          	jalr	1004(ra) # 802086e6 <panic>

0000000080200302 <bpin>:

void
bpin(struct buf *b) {
    80200302:	1101                	addi	sp,sp,-32
    80200304:	ec06                	sd	ra,24(sp)
    80200306:	e822                	sd	s0,16(sp)
    80200308:	e426                	sd	s1,8(sp)
    8020030a:	1000                	addi	s0,sp,32
    8020030c:	84aa                	mv	s1,a0
  acquire(&bcache.lock);
    8020030e:	0083f517          	auipc	a0,0x83f
    80200312:	cf250513          	addi	a0,a0,-782 # 80a3f000 <bcache>
    80200316:	00008097          	auipc	ra,0x8
    8020031a:	060080e7          	jalr	96(ra) # 80208376 <acquire>
  b->refcnt++;
    8020031e:	40bc                	lw	a5,64(s1)
    80200320:	2785                	addiw	a5,a5,1
    80200322:	c0bc                	sw	a5,64(s1)
  release(&bcache.lock);
    80200324:	0083f517          	auipc	a0,0x83f
    80200328:	cdc50513          	addi	a0,a0,-804 # 80a3f000 <bcache>
    8020032c:	00008097          	auipc	ra,0x8
    80200330:	09e080e7          	jalr	158(ra) # 802083ca <release>
}
    80200334:	60e2                	ld	ra,24(sp)
    80200336:	6442                	ld	s0,16(sp)
    80200338:	64a2                	ld	s1,8(sp)
    8020033a:	6105                	addi	sp,sp,32
    8020033c:	8082                	ret

000000008020033e <bunpin>:

void
bunpin(struct buf *b) {
    8020033e:	1101                	addi	sp,sp,-32
    80200340:	ec06                	sd	ra,24(sp)
    80200342:	e822                	sd	s0,16(sp)
    80200344:	e426                	sd	s1,8(sp)
    80200346:	1000                	addi	s0,sp,32
    80200348:	84aa                	mv	s1,a0
  acquire(&bcache.lock);
    8020034a:	0083f517          	auipc	a0,0x83f
    8020034e:	cb650513          	addi	a0,a0,-842 # 80a3f000 <bcache>
    80200352:	00008097          	auipc	ra,0x8
    80200356:	024080e7          	jalr	36(ra) # 80208376 <acquire>
  b->refcnt--;
    8020035a:	40bc                	lw	a5,64(s1)
    8020035c:	37fd                	addiw	a5,a5,-1
    8020035e:	c0bc                	sw	a5,64(s1)
  release(&bcache.lock);
    80200360:	0083f517          	auipc	a0,0x83f
    80200364:	ca050513          	addi	a0,a0,-864 # 80a3f000 <bcache>
    80200368:	00008097          	auipc	ra,0x8
    8020036c:	062080e7          	jalr	98(ra) # 802083ca <release>
}
    80200370:	60e2                	ld	ra,24(sp)
    80200372:	6442                	ld	s0,16(sp)
    80200374:	64a2                	ld	s1,8(sp)
    80200376:	6105                	addi	sp,sp,32
    80200378:	8082                	ret
	...

0000000080200382 <ramdisk_init>:
extern char fs_img_end[];
char* ramdisk;

void
ramdisk_init(void)
{
    80200382:	1101                	addi	sp,sp,-32
    80200384:	ec06                	sd	ra,24(sp)
    80200386:	e822                	sd	s0,16(sp)
    80200388:	e426                	sd	s1,8(sp)
    8020038a:	1000                	addi	s0,sp,32
#ifdef QEMU
  ramdisk = fs_img_start;
    8020038c:	00848497          	auipc	s1,0x848
    80200390:	e0c48493          	addi	s1,s1,-500 # 80a48198 <ramdisk>
    80200394:	00016797          	auipc	a5,0x16
    80200398:	c6c78793          	addi	a5,a5,-916 # 80216000 <data_start>
    8020039c:	e09c                	sd	a5,0(s1)
#endif
#ifdef SIFIVE_U
  ramdisk = (char*)RAMDISK;
#endif
  initlock(&ramdisklock, "ramdisk lock");
    8020039e:	00012597          	auipc	a1,0x12
    802003a2:	ca258593          	addi	a1,a1,-862 # 80212040 <rodata_start+0x40>
    802003a6:	00848517          	auipc	a0,0x848
    802003aa:	dda50513          	addi	a0,a0,-550 # 80a48180 <ramdisklock>
    802003ae:	00008097          	auipc	ra,0x8
    802003b2:	f84080e7          	jalr	-124(ra) # 80208332 <initlock>
  __debug_info("ramdiskinit ram start:%p\n",ramdisk);
    802003b6:	608c                	ld	a1,0(s1)
    802003b8:	00012517          	auipc	a0,0x12
    802003bc:	c9850513          	addi	a0,a0,-872 # 80212050 <rodata_start+0x50>
    802003c0:	00008097          	auipc	ra,0x8
    802003c4:	536080e7          	jalr	1334(ra) # 802088f6 <__debug_info>
}
    802003c8:	60e2                	ld	ra,24(sp)
    802003ca:	6442                	ld	s0,16(sp)
    802003cc:	64a2                	ld	s1,8(sp)
    802003ce:	6105                	addi	sp,sp,32
    802003d0:	8082                	ret

00000000802003d2 <ramdisk_rw>:

void 
ramdisk_rw(struct buf *b, int write)
{
    802003d2:	1101                	addi	sp,sp,-32
    802003d4:	ec06                	sd	ra,24(sp)
    802003d6:	e822                	sd	s0,16(sp)
    802003d8:	e426                	sd	s1,8(sp)
    802003da:	e04a                	sd	s2,0(sp)
    802003dc:	1000                	addi	s0,sp,32
    802003de:	84aa                	mv	s1,a0
    802003e0:	892e                	mv	s2,a1
  acquire(&ramdisklock);
    802003e2:	00848517          	auipc	a0,0x848
    802003e6:	d9e50513          	addi	a0,a0,-610 # 80a48180 <ramdisklock>
    802003ea:	00008097          	auipc	ra,0x8
    802003ee:	f8c080e7          	jalr	-116(ra) # 80208376 <acquire>
  uint sectorno = b->sectorno;

  char *addr = ramdisk + sectorno * BSIZE;
    802003f2:	44dc                	lw	a5,12(s1)
    802003f4:	0097979b          	slliw	a5,a5,0x9
    802003f8:	1782                	slli	a5,a5,0x20
    802003fa:	9381                	srli	a5,a5,0x20
    802003fc:	00848517          	auipc	a0,0x848
    80200400:	d9c53503          	ld	a0,-612(a0) # 80a48198 <ramdisk>
    80200404:	953e                	add	a0,a0,a5
  if (write)
    80200406:	02090863          	beqz	s2,80200436 <ramdisk_rw+0x64>
  {
    memmove((void*)addr, b->data, BSIZE);
    8020040a:	20000613          	li	a2,512
    8020040e:	05848593          	addi	a1,s1,88
    80200412:	00001097          	auipc	ra,0x1
    80200416:	9c2080e7          	jalr	-1598(ra) # 80200dd4 <memmove>
  }
  else
  {
    memmove(b->data, (void*)addr, BSIZE);
  }
  release(&ramdisklock);
    8020041a:	00848517          	auipc	a0,0x848
    8020041e:	d6650513          	addi	a0,a0,-666 # 80a48180 <ramdisklock>
    80200422:	00008097          	auipc	ra,0x8
    80200426:	fa8080e7          	jalr	-88(ra) # 802083ca <release>
}
    8020042a:	60e2                	ld	ra,24(sp)
    8020042c:	6442                	ld	s0,16(sp)
    8020042e:	64a2                	ld	s1,8(sp)
    80200430:	6902                	ld	s2,0(sp)
    80200432:	6105                	addi	sp,sp,32
    80200434:	8082                	ret
    memmove(b->data, (void*)addr, BSIZE);
    80200436:	20000613          	li	a2,512
    8020043a:	85aa                	mv	a1,a0
    8020043c:	05848513          	addi	a0,s1,88
    80200440:	00001097          	auipc	ra,0x1
    80200444:	994080e7          	jalr	-1644(ra) # 80200dd4 <memmove>
    80200448:	bfc9                	j	8020041a <ramdisk_rw+0x48>

000000008020044a <ramdisk_intr>:

void
ramdisk_intr()
{
    8020044a:	1141                	addi	sp,sp,-16
    8020044c:	e422                	sd	s0,8(sp)
    8020044e:	0800                	addi	s0,sp,16
    //acquire(&ramdisklock);
    
}
    80200450:	6422                	ld	s0,8(sp)
    80200452:	0141                	addi	sp,sp,16
    80200454:	8082                	ret

0000000080200456 <spi_min_clk_divisor>:
/**
 * Get smallest clock divisor that divides input_khz to a quotient less than or
 * equal to max_target_khz;
 */
inline unsigned int spi_min_clk_divisor(unsigned int input_khz, unsigned int max_target_khz)
{
    80200456:	1141                	addi	sp,sp,-16
    80200458:	e422                	sd	s0,8(sp)
    8020045a:	0800                	addi	s0,sp,16
  // div = ceil(f_in / (2*f_sck)) - 1
  //     = floor((f_in - 1 + 2*f_sck) / (2*f_sck)) - 1
  //
  // This should not overflow as long as (f_in - 1 + 2*f_sck) does not exceed
  // 2^32 - 1, which is unlikely since we represent frequencies in kHz.
  unsigned int quotient = (input_khz + 2 * max_target_khz - 1) / (2 * max_target_khz);
    8020045c:	0015959b          	slliw	a1,a1,0x1
    80200460:	0005871b          	sext.w	a4,a1
    80200464:	357d                	addiw	a0,a0,-1
    80200466:	9d2d                	addw	a0,a0,a1
    80200468:	0005079b          	sext.w	a5,a0
  // Avoid underflow
  if (quotient == 0) {
    8020046c:	00e7e863          	bltu	a5,a4,8020047c <spi_min_clk_divisor+0x26>
  unsigned int quotient = (input_khz + 2 * max_target_khz - 1) / (2 * max_target_khz);
    80200470:	02b5553b          	divuw	a0,a0,a1
    return 0;
  } else {
    return quotient - 1;
    80200474:	357d                	addiw	a0,a0,-1
  }
}
    80200476:	6422                	ld	s0,8(sp)
    80200478:	0141                	addi	sp,sp,16
    8020047a:	8082                	ret
    return 0;
    8020047c:	4501                	li	a0,0
    8020047e:	bfe5                	j	80200476 <spi_min_clk_divisor+0x20>

0000000080200480 <spi_tx>:

/**
 * Wait until SPI is ready for transmission and transmit byte.
 */
void spi_tx(spi_ctrl* spictrl, uint8_t in)
{
    80200480:	1141                	addi	sp,sp,-16
    80200482:	e422                	sd	s0,8(sp)
    80200484:	0800                	addi	s0,sp,16
#if __riscv_atomic
  int32_t r;
  do {
    asm volatile (
    80200486:	04850793          	addi	a5,a0,72
    8020048a:	40b7a7af          	amoor.w	a5,a1,(a5)
      "amoor.w %0, %2, %1\n"
      : "=r" (r), "+A" (spictrl->txdata.raw_bits)
      : "r" (in)
    );
  } while (r < 0);
    8020048e:	02079713          	slli	a4,a5,0x20
    80200492:	fe074ae3          	bltz	a4,80200486 <spi_tx+0x6>
#else
  while ((int32_t) spictrl->txdata.raw_bits < 0);
  spictrl->txdata.data = in;
#endif
}
    80200496:	6422                	ld	s0,8(sp)
    80200498:	0141                	addi	sp,sp,16
    8020049a:	8082                	ret

000000008020049c <spi_rx>:

/**
 * Wait until SPI receive queue has data and read byte.
 */
uint8_t spi_rx(spi_ctrl* spictrl)
{
    8020049c:	1141                	addi	sp,sp,-16
    8020049e:	e422                	sd	s0,8(sp)
    802004a0:	0800                	addi	s0,sp,16
  int32_t out;
  while ((out = (int32_t) spictrl->rxdata.raw_bits) < 0);
    802004a2:	457c                	lw	a5,76(a0)
    802004a4:	02079693          	slli	a3,a5,0x20
    802004a8:	fe06cde3          	bltz	a3,802004a2 <spi_rx+0x6>
    802004ac:	0007871b          	sext.w	a4,a5
  return (uint8_t) out;
}
    802004b0:	0ff77513          	andi	a0,a4,255
    802004b4:	6422                	ld	s0,8(sp)
    802004b6:	0141                	addi	sp,sp,16
    802004b8:	8082                	ret

00000000802004ba <spi_txrx>:

/**
 * Transmit a byte and receive a byte.
 */
uint8_t spi_txrx(spi_ctrl* spictrl, uint8_t in)
{
    802004ba:	1101                	addi	sp,sp,-32
    802004bc:	ec06                	sd	ra,24(sp)
    802004be:	e822                	sd	s0,16(sp)
    802004c0:	e426                	sd	s1,8(sp)
    802004c2:	1000                	addi	s0,sp,32
    802004c4:	84aa                	mv	s1,a0
  spi_tx(spictrl, in);
    802004c6:	00000097          	auipc	ra,0x0
    802004ca:	fba080e7          	jalr	-70(ra) # 80200480 <spi_tx>
  while ((out = (int32_t) spictrl->rxdata.raw_bits) < 0);
    802004ce:	44fc                	lw	a5,76(s1)
    802004d0:	0007851b          	sext.w	a0,a5
    802004d4:	02079713          	slli	a4,a5,0x20
    802004d8:	fe074be3          	bltz	a4,802004ce <spi_txrx+0x14>
  return spi_rx(spictrl);
}
    802004dc:	0ff57513          	andi	a0,a0,255
    802004e0:	60e2                	ld	ra,24(sp)
    802004e2:	6442                	ld	s0,16(sp)
    802004e4:	64a2                	ld	s1,8(sp)
    802004e6:	6105                	addi	sp,sp,32
    802004e8:	8082                	ret

00000000802004ea <spi_copy>:

/**
 * Copy data from SPI flash without memory-mapped flash.
 */
int spi_copy(spi_ctrl* spictrl, void* buf, uint32_t addr, uint32_t size)
{
    802004ea:	7179                	addi	sp,sp,-48
    802004ec:	f406                	sd	ra,40(sp)
    802004ee:	f022                	sd	s0,32(sp)
    802004f0:	ec26                	sd	s1,24(sp)
    802004f2:	e84a                	sd	s2,16(sp)
    802004f4:	e44e                	sd	s3,8(sp)
    802004f6:	e052                	sd	s4,0(sp)
    802004f8:	1800                	addi	s0,sp,48
    802004fa:	89aa                	mv	s3,a0
    802004fc:	84ae                	mv	s1,a1
    802004fe:	8a32                	mv	s4,a2
    80200500:	8936                	mv	s2,a3
  uint8_t* buf_bytes = (uint8_t*) buf;
  spictrl->csmode.mode = SPI_CSMODE_HOLD;
    80200502:	4d1c                	lw	a5,24(a0)
    80200504:	9bf1                	andi	a5,a5,-4
    80200506:	0027e793          	ori	a5,a5,2
    8020050a:	cd1c                	sw	a5,24(a0)

  spi_txrx(spictrl, MICRON_SPI_FLASH_CMD_READ);
    8020050c:	458d                	li	a1,3
    8020050e:	00000097          	auipc	ra,0x0
    80200512:	fac080e7          	jalr	-84(ra) # 802004ba <spi_txrx>
  spi_txrx(spictrl, (addr >> 16) & 0xff);
    80200516:	010a559b          	srliw	a1,s4,0x10
    8020051a:	0ff5f593          	andi	a1,a1,255
    8020051e:	854e                	mv	a0,s3
    80200520:	00000097          	auipc	ra,0x0
    80200524:	f9a080e7          	jalr	-102(ra) # 802004ba <spi_txrx>
  spi_txrx(spictrl, (addr >> 8) & 0xff);
    80200528:	008a559b          	srliw	a1,s4,0x8
    8020052c:	0ff5f593          	andi	a1,a1,255
    80200530:	854e                	mv	a0,s3
    80200532:	00000097          	auipc	ra,0x0
    80200536:	f88080e7          	jalr	-120(ra) # 802004ba <spi_txrx>
  spi_txrx(spictrl, addr & 0xff);
    8020053a:	0ffa7593          	andi	a1,s4,255
    8020053e:	854e                	mv	a0,s3
    80200540:	00000097          	auipc	ra,0x0
    80200544:	f7a080e7          	jalr	-134(ra) # 802004ba <spi_txrx>

  for (unsigned int i = 0; i < size; i++) {
    80200548:	02090363          	beqz	s2,8020056e <spi_copy+0x84>
    8020054c:	397d                	addiw	s2,s2,-1
    8020054e:	1902                	slli	s2,s2,0x20
    80200550:	02095913          	srli	s2,s2,0x20
    80200554:	0905                	addi	s2,s2,1
    80200556:	9926                	add	s2,s2,s1
    *buf_bytes = spi_txrx(spictrl, 0);
    80200558:	4581                	li	a1,0
    8020055a:	854e                	mv	a0,s3
    8020055c:	00000097          	auipc	ra,0x0
    80200560:	f5e080e7          	jalr	-162(ra) # 802004ba <spi_txrx>
    80200564:	00a48023          	sb	a0,0(s1)
    buf_bytes++;
    80200568:	0485                	addi	s1,s1,1
  for (unsigned int i = 0; i < size; i++) {
    8020056a:	ff2497e3          	bne	s1,s2,80200558 <spi_copy+0x6e>
  }

  spictrl->csmode.mode = SPI_CSMODE_AUTO;
    8020056e:	0189a783          	lw	a5,24(s3)
    80200572:	9bf1                	andi	a5,a5,-4
    80200574:	00f9ac23          	sw	a5,24(s3)
  return 0;
}
    80200578:	4501                	li	a0,0
    8020057a:	70a2                	ld	ra,40(sp)
    8020057c:	7402                	ld	s0,32(sp)
    8020057e:	64e2                	ld	s1,24(sp)
    80200580:	6942                	ld	s2,16(sp)
    80200582:	69a2                	ld	s3,8(sp)
    80200584:	6a02                	ld	s4,0(sp)
    80200586:	6145                	addi	sp,sp,48
    80200588:	8082                	ret

000000008020058a <crc7>:
  return rc;
}


static uint8_t crc7(uint8_t prev, uint8_t in)
{
    8020058a:	1141                	addi	sp,sp,-16
    8020058c:	e422                	sd	s0,8(sp)
    8020058e:	0800                	addi	s0,sp,16
  // CRC polynomial 0x89
  uint8_t remainder = prev & in;
    80200590:	8de9                	and	a1,a1,a0
  remainder ^= (remainder >> 4) ^ (remainder >> 7);
    80200592:	0045d51b          	srliw	a0,a1,0x4
    80200596:	0075d79b          	srliw	a5,a1,0x7
    8020059a:	8d3d                	xor	a0,a0,a5
    8020059c:	0ff57513          	andi	a0,a0,255
    802005a0:	8d2d                	xor	a0,a0,a1
  remainder ^= remainder << 4;
    802005a2:	0045159b          	slliw	a1,a0,0x4
    802005a6:	8d2d                	xor	a0,a0,a1
  return remainder & 0x7f;
}
    802005a8:	07f57513          	andi	a0,a0,127
    802005ac:	6422                	ld	s0,8(sp)
    802005ae:	0141                	addi	sp,sp,16
    802005b0:	8082                	ret

00000000802005b2 <crc16>:


static uint16_t crc16(uint16_t crc, uint8_t data)
{
    802005b2:	1141                	addi	sp,sp,-16
    802005b4:	e422                	sd	s0,8(sp)
    802005b6:	0800                	addi	s0,sp,16
  // CRC polynomial 0x11021
  crc = (uint8_t)(crc >> 8) | (crc << 8);
    802005b8:	0085579b          	srliw	a5,a0,0x8
    802005bc:	0085151b          	slliw	a0,a0,0x8
    802005c0:	8d5d                	or	a0,a0,a5
    802005c2:	1542                	slli	a0,a0,0x30
    802005c4:	9141                	srli	a0,a0,0x30
  crc ^= data;
    802005c6:	8da9                	xor	a1,a1,a0
  crc ^= (uint8_t)(crc >> 4) & 0xf;
    802005c8:	0045d51b          	srliw	a0,a1,0x4
    802005cc:	893d                	andi	a0,a0,15
    802005ce:	8d2d                	xor	a0,a0,a1
  crc ^= crc << 12;
    802005d0:	00c5159b          	slliw	a1,a0,0xc
    802005d4:	8d2d                	xor	a0,a0,a1
  crc ^= (crc & 0xff) << 5;
    802005d6:	0105179b          	slliw	a5,a0,0x10
    802005da:	0107d79b          	srliw	a5,a5,0x10
    802005de:	0057979b          	slliw	a5,a5,0x5
    802005e2:	6709                	lui	a4,0x2
    802005e4:	1701                	addi	a4,a4,-32
    802005e6:	8ff9                	and	a5,a5,a4
    802005e8:	8d3d                	xor	a0,a0,a5
  return crc;
}
    802005ea:	1542                	slli	a0,a0,0x30
    802005ec:	9141                	srli	a0,a0,0x30
    802005ee:	6422                	ld	s0,8(sp)
    802005f0:	0141                	addi	sp,sp,16
    802005f2:	8082                	ret

00000000802005f4 <sd_cmd>:
{
    802005f4:	7179                	addi	sp,sp,-48
    802005f6:	f406                	sd	ra,40(sp)
    802005f8:	f022                	sd	s0,32(sp)
    802005fa:	ec26                	sd	s1,24(sp)
    802005fc:	e84a                	sd	s2,16(sp)
    802005fe:	e44e                	sd	s3,8(sp)
    80200600:	e052                	sd	s4,0(sp)
    80200602:	1800                	addi	s0,sp,48
    80200604:	892a                	mv	s2,a0
    80200606:	8a2e                	mv	s4,a1
    80200608:	84b2                	mv	s1,a2
    8020060a:	89b6                	mv	s3,a3
  spi->csmode.mode = SPI_CSMODE_HOLD;
    8020060c:	4d1c                	lw	a5,24(a0)
    8020060e:	9bf1                	andi	a5,a5,-4
    80200610:	0027e793          	ori	a5,a5,2
    80200614:	cd1c                	sw	a5,24(a0)
  return spi_txrx(spi, 0xFF);
    80200616:	0ff00593          	li	a1,255
    8020061a:	00000097          	auipc	ra,0x0
    8020061e:	ea0080e7          	jalr	-352(ra) # 802004ba <spi_txrx>
  spi_txrx(spi, cmd);
    80200622:	85d2                	mv	a1,s4
    80200624:	854a                	mv	a0,s2
    80200626:	00000097          	auipc	ra,0x0
    8020062a:	e94080e7          	jalr	-364(ra) # 802004ba <spi_txrx>
  spi_txrx(spi, arg >> 24);
    8020062e:	0184d59b          	srliw	a1,s1,0x18
    80200632:	854a                	mv	a0,s2
    80200634:	00000097          	auipc	ra,0x0
    80200638:	e86080e7          	jalr	-378(ra) # 802004ba <spi_txrx>
  spi_txrx(spi, arg >> 16);
    8020063c:	0104d59b          	srliw	a1,s1,0x10
    80200640:	0ff5f593          	andi	a1,a1,255
    80200644:	854a                	mv	a0,s2
    80200646:	00000097          	auipc	ra,0x0
    8020064a:	e74080e7          	jalr	-396(ra) # 802004ba <spi_txrx>
  spi_txrx(spi, arg >> 8);
    8020064e:	0084d59b          	srliw	a1,s1,0x8
    80200652:	0ff5f593          	andi	a1,a1,255
    80200656:	854a                	mv	a0,s2
    80200658:	00000097          	auipc	ra,0x0
    8020065c:	e62080e7          	jalr	-414(ra) # 802004ba <spi_txrx>
  spi_txrx(spi, arg);
    80200660:	0ff4f593          	andi	a1,s1,255
    80200664:	854a                	mv	a0,s2
    80200666:	00000097          	auipc	ra,0x0
    8020066a:	e54080e7          	jalr	-428(ra) # 802004ba <spi_txrx>
  spi_txrx(spi, crc);
    8020066e:	85ce                	mv	a1,s3
    80200670:	854a                	mv	a0,s2
    80200672:	00000097          	auipc	ra,0x0
    80200676:	e48080e7          	jalr	-440(ra) # 802004ba <spi_txrx>
    8020067a:	3e800493          	li	s1,1000
  return spi_txrx(spi, 0xFF);
    8020067e:	0ff00593          	li	a1,255
    80200682:	854a                	mv	a0,s2
    80200684:	00000097          	auipc	ra,0x0
    80200688:	e36080e7          	jalr	-458(ra) # 802004ba <spi_txrx>
    if (!(r & 0x80)) {
    8020068c:	0185179b          	slliw	a5,a0,0x18
    80200690:	4187d79b          	sraiw	a5,a5,0x18
    80200694:	0007d463          	bgez	a5,8020069c <sd_cmd+0xa8>
  } while (--n > 0);
    80200698:	14fd                	addi	s1,s1,-1
    8020069a:	f0f5                	bnez	s1,8020067e <sd_cmd+0x8a>
}
    8020069c:	2501                	sext.w	a0,a0
    8020069e:	70a2                	ld	ra,40(sp)
    802006a0:	7402                	ld	s0,32(sp)
    802006a2:	64e2                	ld	s1,24(sp)
    802006a4:	6942                	ld	s2,16(sp)
    802006a6:	69a2                	ld	s3,8(sp)
    802006a8:	6a02                	ld	s4,0(sp)
    802006aa:	6145                	addi	sp,sp,48
    802006ac:	8082                	ret

00000000802006ae <sd_init>:
//    }
//    return gpt_invalid_partition_range();
//}

int sd_init(spi_ctrl* spi, unsigned int input_clk_khz, int skip_sd_init_commands)
{
    802006ae:	7179                	addi	sp,sp,-48
    802006b0:	f406                	sd	ra,40(sp)
    802006b2:	f022                	sd	s0,32(sp)
    802006b4:	ec26                	sd	s1,24(sp)
    802006b6:	e84a                	sd	s2,16(sp)
    802006b8:	e44e                	sd	s3,8(sp)
    802006ba:	e052                	sd	s4,0(sp)
    802006bc:	1800                	addi	s0,sp,48
    802006be:	84aa                	mv	s1,a0
    802006c0:	892e                	mv	s2,a1
  // Skip SD initialization commands if already done earlier and only set the
  // clock divider for data transfer.
  if (!skip_sd_init_commands) {
    802006c2:	ce1d                	beqz	a2,80200700 <sd_init+0x52>
  unsigned int quotient = (input_khz + 2 * max_target_khz - 1) / (2 * max_target_khz);
    802006c4:	65a9                	lui	a1,0xa
    802006c6:	c3f5859b          	addiw	a1,a1,-961
    802006ca:	00b9093b          	addw	s2,s2,a1
    802006ce:	0009071b          	sext.w	a4,s2
  if (quotient == 0) {
    802006d2:	67a9                	lui	a5,0xa
    802006d4:	c3f78793          	addi	a5,a5,-961 # 9c3f <_entry-0x801f63c1>
    return 0;
    802006d8:	4581                	li	a1,0
  if (quotient == 0) {
    802006da:	00e7f963          	bgeu	a5,a4,802006ec <sd_init+0x3e>
  unsigned int quotient = (input_khz + 2 * max_target_khz - 1) / (2 * max_target_khz);
    802006de:	65a9                	lui	a1,0xa
    802006e0:	c405859b          	addiw	a1,a1,-960
    802006e4:	02b9593b          	divuw	s2,s2,a1
    return quotient - 1;
    802006e8:	fff9059b          	addiw	a1,s2,-1
    if (sd_acmd41(spi)) return SD_INIT_ERROR_ACMD41;
    if (sd_cmd58(spi)) return SD_INIT_ERROR_CMD58;
    if (sd_cmd16(spi)) return SD_INIT_ERROR_CMD16;
  }
  // Increase clock frequency after initialization for higher performance.
  spi->sckdiv = spi_min_clk_divisor(input_clk_khz, SD_POST_INIT_CLK_KHZ);
    802006ec:	c08c                	sw	a1,0(s1)
  return 0;
    802006ee:	4501                	li	a0,0
}
    802006f0:	70a2                	ld	ra,40(sp)
    802006f2:	7402                	ld	s0,32(sp)
    802006f4:	64e2                	ld	s1,24(sp)
    802006f6:	6942                	ld	s2,16(sp)
    802006f8:	69a2                	ld	s3,8(sp)
    802006fa:	6a02                	ld	s4,0(sp)
    802006fc:	6145                	addi	sp,sp,48
    802006fe:	8082                	ret
  uint64_t start = get_time_us();
    80200700:	0000a097          	auipc	ra,0xa
    80200704:	ad4080e7          	jalr	-1324(ra) # 8020a1d4 <get_time_us>
    80200708:	8a2a                	mv	s4,a0
  while(get_time_us()-start>5000);
    8020070a:	6985                	lui	s3,0x1
    8020070c:	38898993          	addi	s3,s3,904 # 1388 <_entry-0x801fec78>
    80200710:	0000a097          	auipc	ra,0xa
    80200714:	ac4080e7          	jalr	-1340(ra) # 8020a1d4 <get_time_us>
    80200718:	414507b3          	sub	a5,a0,s4
    8020071c:	fef9eae3          	bltu	s3,a5,80200710 <sd_init+0x62>
  }).raw_bits;
    80200720:	000807b7          	lui	a5,0x80
  spi->fmt.raw_bits = ((spi_reg_fmt) {
    80200724:	c0bc                	sw	a5,64(s1)
  spi->csdef |= 0x1;
    80200726:	48dc                	lw	a5,20(s1)
    80200728:	2781                	sext.w	a5,a5
    8020072a:	0017e793          	ori	a5,a5,1
    8020072e:	c8dc                	sw	a5,20(s1)
  spi->csid = 0;
    80200730:	0004a823          	sw	zero,16(s1)
  unsigned int quotient = (input_khz + 2 * max_target_khz - 1) / (2 * max_target_khz);
    80200734:	31f9079b          	addiw	a5,s2,799
    80200738:	0007861b          	sext.w	a2,a5
  if (quotient == 0) {
    8020073c:	31f00693          	li	a3,799
    return 0;
    80200740:	4701                	li	a4,0
  if (quotient == 0) {
    80200742:	00c6f863          	bgeu	a3,a2,80200752 <sd_init+0xa4>
  unsigned int quotient = (input_khz + 2 * max_target_khz - 1) / (2 * max_target_khz);
    80200746:	32000713          	li	a4,800
    8020074a:	02e7d7bb          	divuw	a5,a5,a4
    return quotient - 1;
    8020074e:	fff7871b          	addiw	a4,a5,-1
  spi->sckdiv = spi_min_clk_divisor(input_clk_khz, SD_POWER_ON_FREQ_KHZ);
    80200752:	c098                	sw	a4,0(s1)
  spi->csmode.mode = SPI_CSMODE_OFF;
    80200754:	4c9c                	lw	a5,24(s1)
    80200756:	0037e793          	ori	a5,a5,3
    8020075a:	cc9c                	sw	a5,24(s1)
    8020075c:	49a9                	li	s3,10
  return spi_txrx(spi, 0xFF);
    8020075e:	0ff00593          	li	a1,255
    80200762:	8526                	mv	a0,s1
    80200764:	00000097          	auipc	ra,0x0
    80200768:	d56080e7          	jalr	-682(ra) # 802004ba <spi_txrx>
  for (int i = 10; i > 0; i--) {
    8020076c:	39fd                	addiw	s3,s3,-1
    8020076e:	fe0998e3          	bnez	s3,8020075e <sd_init+0xb0>
  spi->csmode.mode = SPI_CSMODE_AUTO;
    80200772:	4c9c                	lw	a5,24(s1)
    80200774:	9bf1                	andi	a5,a5,-4
    80200776:	cc9c                	sw	a5,24(s1)
  rc = (sd_cmd(spi, SD_CMD(SD_CMD_GO_IDLE_STATE), 0, 0x95) != SD_RESPONSE_IDLE);
    80200778:	09500693          	li	a3,149
    8020077c:	4601                	li	a2,0
    8020077e:	04000593          	li	a1,64
    80200782:	8526                	mv	a0,s1
    80200784:	00000097          	auipc	ra,0x0
    80200788:	e70080e7          	jalr	-400(ra) # 802005f4 <sd_cmd>
    8020078c:	89aa                	mv	s3,a0
  return spi_txrx(spi, 0xFF);
    8020078e:	0ff00593          	li	a1,255
    80200792:	8526                	mv	a0,s1
    80200794:	00000097          	auipc	ra,0x0
    80200798:	d26080e7          	jalr	-730(ra) # 802004ba <spi_txrx>
  spi->csmode.mode = SPI_CSMODE_AUTO;
    8020079c:	4c9c                	lw	a5,24(s1)
    8020079e:	9bf1                	andi	a5,a5,-4
    802007a0:	cc9c                	sw	a5,24(s1)
    if (sd_cmd0(spi)) return SD_INIT_ERROR_CMD0;
    802007a2:	4785                	li	a5,1
    802007a4:	4505                	li	a0,1
    802007a6:	f4f995e3          	bne	s3,a5,802006f0 <sd_init+0x42>
  rc = (sd_cmd(spi, SD_CMD(SD_CMD_SEND_IF_COND), 0x000001AA, 0x87) != SD_RESPONSE_IDLE);
    802007aa:	08700693          	li	a3,135
    802007ae:	1aa00613          	li	a2,426
    802007b2:	04800593          	li	a1,72
    802007b6:	8526                	mv	a0,s1
    802007b8:	00000097          	auipc	ra,0x0
    802007bc:	e3c080e7          	jalr	-452(ra) # 802005f4 <sd_cmd>
    802007c0:	89aa                	mv	s3,a0
  return spi_txrx(spi, 0xFF);
    802007c2:	0ff00593          	li	a1,255
    802007c6:	8526                	mv	a0,s1
    802007c8:	00000097          	auipc	ra,0x0
    802007cc:	cf2080e7          	jalr	-782(ra) # 802004ba <spi_txrx>
    802007d0:	0ff00593          	li	a1,255
    802007d4:	8526                	mv	a0,s1
    802007d6:	00000097          	auipc	ra,0x0
    802007da:	ce4080e7          	jalr	-796(ra) # 802004ba <spi_txrx>
    802007de:	0ff00593          	li	a1,255
    802007e2:	8526                	mv	a0,s1
    802007e4:	00000097          	auipc	ra,0x0
    802007e8:	cd6080e7          	jalr	-810(ra) # 802004ba <spi_txrx>
    802007ec:	8a2a                	mv	s4,a0
    802007ee:	0ff00593          	li	a1,255
    802007f2:	8526                	mv	a0,s1
    802007f4:	00000097          	auipc	ra,0x0
    802007f8:	cc6080e7          	jalr	-826(ra) # 802004ba <spi_txrx>
  rc = (sd_cmd(spi, SD_CMD(SD_CMD_SEND_IF_COND), 0x000001AA, 0x87) != SD_RESPONSE_IDLE);
    802007fc:	19fd                	addi	s3,s3,-1
    802007fe:	013039b3          	snez	s3,s3
  rc |= (sd_dummy(spi) != 0xAA); /* check pattern */
    80200802:	0005079b          	sext.w	a5,a0
    80200806:	f5678793          	addi	a5,a5,-170 # 7ff56 <_entry-0x801800aa>
    8020080a:	00f037b3          	snez	a5,a5
    8020080e:	00f9e9b3          	or	s3,s3,a5
  rc |= ((sd_dummy(spi) & 0xF) != 0x1); /* voltage */
    80200812:	00fa7a13          	andi	s4,s4,15
    80200816:	1a7d                	addi	s4,s4,-1
    80200818:	01403a33          	snez	s4,s4
    8020081c:	0149e9b3          	or	s3,s3,s4
    80200820:	0ff9f993          	andi	s3,s3,255
  return spi_txrx(spi, 0xFF);
    80200824:	0ff00593          	li	a1,255
    80200828:	8526                	mv	a0,s1
    8020082a:	00000097          	auipc	ra,0x0
    8020082e:	c90080e7          	jalr	-880(ra) # 802004ba <spi_txrx>
  spi->csmode.mode = SPI_CSMODE_AUTO;
    80200832:	4c9c                	lw	a5,24(s1)
    80200834:	9bf1                	andi	a5,a5,-4
    80200836:	cc9c                	sw	a5,24(s1)
    if (sd_cmd8(spi)) return SD_INIT_ERROR_CMD8;
    80200838:	4509                	li	a0,2
    8020083a:	ea099be3          	bnez	s3,802006f0 <sd_init+0x42>
  } while (r == SD_RESPONSE_IDLE);
    8020083e:	4a05                	li	s4,1
  sd_cmd(spi, SD_CMD(SD_CMD_APP_CMD), 0, 0x65);
    80200840:	06500693          	li	a3,101
    80200844:	4601                	li	a2,0
    80200846:	07700593          	li	a1,119
    8020084a:	8526                	mv	a0,s1
    8020084c:	00000097          	auipc	ra,0x0
    80200850:	da8080e7          	jalr	-600(ra) # 802005f4 <sd_cmd>
  return spi_txrx(spi, 0xFF);
    80200854:	0ff00593          	li	a1,255
    80200858:	8526                	mv	a0,s1
    8020085a:	00000097          	auipc	ra,0x0
    8020085e:	c60080e7          	jalr	-928(ra) # 802004ba <spi_txrx>
  spi->csmode.mode = SPI_CSMODE_AUTO;
    80200862:	4c9c                	lw	a5,24(s1)
    80200864:	9bf1                	andi	a5,a5,-4
    80200866:	cc9c                	sw	a5,24(s1)
    r = sd_cmd(spi, SD_CMD(SD_CMD_APP_SEND_OP_COND), 0x40000000, 0x77); /* HCS = 1 */
    80200868:	07700693          	li	a3,119
    8020086c:	40000637          	lui	a2,0x40000
    80200870:	06900593          	li	a1,105
    80200874:	8526                	mv	a0,s1
    80200876:	00000097          	auipc	ra,0x0
    8020087a:	d7e080e7          	jalr	-642(ra) # 802005f4 <sd_cmd>
    8020087e:	0ff57993          	andi	s3,a0,255
  return spi_txrx(spi, 0xFF);
    80200882:	0ff00593          	li	a1,255
    80200886:	8526                	mv	a0,s1
    80200888:	00000097          	auipc	ra,0x0
    8020088c:	c32080e7          	jalr	-974(ra) # 802004ba <spi_txrx>
  spi->csmode.mode = SPI_CSMODE_AUTO;
    80200890:	4c9c                	lw	a5,24(s1)
    80200892:	9bf1                	andi	a5,a5,-4
    80200894:	cc9c                	sw	a5,24(s1)
  } while (r == SD_RESPONSE_IDLE);
    80200896:	fb4985e3          	beq	s3,s4,80200840 <sd_init+0x192>
    if (sd_acmd41(spi)) return SD_INIT_ERROR_ACMD41;
    8020089a:	450d                	li	a0,3
    8020089c:	e4099ae3          	bnez	s3,802006f0 <sd_init+0x42>
  rc = (sd_cmd(spi, SD_CMD(SD_CMD_SET_BLOCKLEN), 0x200, 0x15) != 0x00);
    802008a0:	46d5                	li	a3,21
    802008a2:	20000613          	li	a2,512
    802008a6:	05000593          	li	a1,80
    802008aa:	8526                	mv	a0,s1
    802008ac:	00000097          	auipc	ra,0x0
    802008b0:	d48080e7          	jalr	-696(ra) # 802005f4 <sd_cmd>
    802008b4:	89aa                	mv	s3,a0
  return spi_txrx(spi, 0xFF);
    802008b6:	0ff00593          	li	a1,255
    802008ba:	8526                	mv	a0,s1
    802008bc:	00000097          	auipc	ra,0x0
    802008c0:	bfe080e7          	jalr	-1026(ra) # 802004ba <spi_txrx>
  spi->csmode.mode = SPI_CSMODE_AUTO;
    802008c4:	4c9c                	lw	a5,24(s1)
    802008c6:	9bf1                	andi	a5,a5,-4
    802008c8:	cc9c                	sw	a5,24(s1)
    if (sd_cmd16(spi)) return SD_INIT_ERROR_CMD16;
    802008ca:	4515                	li	a0,5
    802008cc:	de098ce3          	beqz	s3,802006c4 <sd_init+0x16>
    802008d0:	b505                	j	802006f0 <sd_init+0x42>

00000000802008d2 <sd_read_blocks>:


int sd_read_blocks(spi_ctrl* spi, void* dst, uint32_t src_lba, size_t size)
{
    802008d2:	715d                	addi	sp,sp,-80
    802008d4:	e486                	sd	ra,72(sp)
    802008d6:	e0a2                	sd	s0,64(sp)
    802008d8:	fc26                	sd	s1,56(sp)
    802008da:	f84a                	sd	s2,48(sp)
    802008dc:	f44e                	sd	s3,40(sp)
    802008de:	f052                	sd	s4,32(sp)
    802008e0:	ec56                	sd	s5,24(sp)
    802008e2:	e85a                	sd	s6,16(sp)
    802008e4:	e45e                	sd	s7,8(sp)
    802008e6:	e062                	sd	s8,0(sp)
    802008e8:	0880                	addi	s0,sp,80
    802008ea:	892a                	mv	s2,a0
    802008ec:	89ae                	mv	s3,a1
    802008ee:	84b2                	mv	s1,a2
    802008f0:	8ab6                	mv	s5,a3
  volatile uint8_t *p = dst;
  long i = size;
  int rc = 0;

  uint8_t crc = 0;
  crc = crc7(crc, SD_CMD(SD_CMD_READ_BLOCK_MULTIPLE));
    802008f2:	05200593          	li	a1,82
    802008f6:	4501                	li	a0,0
    802008f8:	00000097          	auipc	ra,0x0
    802008fc:	c92080e7          	jalr	-878(ra) # 8020058a <crc7>
  crc = crc7(crc, src_lba >> 24);
    80200900:	0184d59b          	srliw	a1,s1,0x18
    80200904:	00000097          	auipc	ra,0x0
    80200908:	c86080e7          	jalr	-890(ra) # 8020058a <crc7>
  crc = crc7(crc, (src_lba >> 16) & 0xff);
    8020090c:	0104d59b          	srliw	a1,s1,0x10
    80200910:	0ff5f593          	andi	a1,a1,255
    80200914:	00000097          	auipc	ra,0x0
    80200918:	c76080e7          	jalr	-906(ra) # 8020058a <crc7>
  crc = crc7(crc, (src_lba >> 8) & 0xff);
    8020091c:	0084d59b          	srliw	a1,s1,0x8
    80200920:	0ff5f593          	andi	a1,a1,255
    80200924:	00000097          	auipc	ra,0x0
    80200928:	c66080e7          	jalr	-922(ra) # 8020058a <crc7>
  crc = crc7(crc, src_lba & 0xff);
    8020092c:	0ff4f593          	andi	a1,s1,255
    80200930:	00000097          	auipc	ra,0x0
    80200934:	c5a080e7          	jalr	-934(ra) # 8020058a <crc7>
  crc = (crc << 1) | 1;
    80200938:	0015169b          	slliw	a3,a0,0x1
    8020093c:	0016e693          	ori	a3,a3,1
  if (sd_cmd(spi, SD_CMD(SD_CMD_READ_BLOCK_MULTIPLE), src_lba, crc) != 0x00) {
    80200940:	0ff6f693          	andi	a3,a3,255
    80200944:	8626                	mv	a2,s1
    80200946:	05200593          	li	a1,82
    8020094a:	854a                	mv	a0,s2
    8020094c:	00000097          	auipc	ra,0x0
    80200950:	ca8080e7          	jalr	-856(ra) # 802005f4 <sd_cmd>
    80200954:	8baa                	mv	s7,a0
    80200956:	20098993          	addi	s3,s3,512
    uint16_t crc, crc_exp;
    long n;

    crc = 0;
    n = 512;
    while (sd_dummy(spi) != SD_DATA_TOKEN);
    8020095a:	0fe00a13          	li	s4,254
    crc = 0;
    8020095e:	4b01                	li	s6,0
  if (sd_cmd(spi, SD_CMD(SD_CMD_READ_BLOCK_MULTIPLE), src_lba, crc) != 0x00) {
    80200960:	e149                	bnez	a0,802009e2 <sd_read_blocks+0x110>
    80200962:	e0098c13          	addi	s8,s3,-512
  return spi_txrx(spi, 0xFF);
    80200966:	0ff00593          	li	a1,255
    8020096a:	854a                	mv	a0,s2
    8020096c:	00000097          	auipc	ra,0x0
    80200970:	b4e080e7          	jalr	-1202(ra) # 802004ba <spi_txrx>
    while (sd_dummy(spi) != SD_DATA_TOKEN);
    80200974:	ff4519e3          	bne	a0,s4,80200966 <sd_read_blocks+0x94>
    crc = 0;
    80200978:	84da                	mv	s1,s6
  return spi_txrx(spi, 0xFF);
    8020097a:	0ff00593          	li	a1,255
    8020097e:	854a                	mv	a0,s2
    80200980:	00000097          	auipc	ra,0x0
    80200984:	b3a080e7          	jalr	-1222(ra) # 802004ba <spi_txrx>
    80200988:	85aa                	mv	a1,a0
    do {
      uint8_t x = sd_dummy(spi);
      *p++ = x;
    8020098a:	87e2                	mv	a5,s8
    8020098c:	0c05                	addi	s8,s8,1
    8020098e:	00a78023          	sb	a0,0(a5)
      crc = crc16(crc, x);
    80200992:	8526                	mv	a0,s1
    80200994:	00000097          	auipc	ra,0x0
    80200998:	c1e080e7          	jalr	-994(ra) # 802005b2 <crc16>
    8020099c:	84aa                	mv	s1,a0
    } while (--n > 0);
    8020099e:	fd3c1ee3          	bne	s8,s3,8020097a <sd_read_blocks+0xa8>
  return spi_txrx(spi, 0xFF);
    802009a2:	0ff00593          	li	a1,255
    802009a6:	854a                	mv	a0,s2
    802009a8:	00000097          	auipc	ra,0x0
    802009ac:	b12080e7          	jalr	-1262(ra) # 802004ba <spi_txrx>

    crc_exp = ((uint16_t)sd_dummy(spi) << 8);
    802009b0:	00851c1b          	slliw	s8,a0,0x8
    802009b4:	1c42                	slli	s8,s8,0x30
    802009b6:	030c5c13          	srli	s8,s8,0x30
  return spi_txrx(spi, 0xFF);
    802009ba:	0ff00593          	li	a1,255
    802009be:	854a                	mv	a0,s2
    802009c0:	00000097          	auipc	ra,0x0
    802009c4:	afa080e7          	jalr	-1286(ra) # 802004ba <spi_txrx>
    crc_exp |= sd_dummy(spi);
    802009c8:	00ac67b3          	or	a5,s8,a0

    if (crc != crc_exp) {
    802009cc:	2481                	sext.w	s1,s1
    802009ce:	17c2                	slli	a5,a5,0x30
    802009d0:	93c1                	srli	a5,a5,0x30
    802009d2:	02f49663          	bne	s1,a5,802009fe <sd_read_blocks+0x12c>
      break;
    }
//    if ((i % 2000) == 0){
//      puts(".");
//    }
  } while (--i > 0);
    802009d6:	1afd                	addi	s5,s5,-1
    802009d8:	20098993          	addi	s3,s3,512
    802009dc:	f95043e3          	bgtz	s5,80200962 <sd_read_blocks+0x90>
    802009e0:	a005                	j	80200a00 <sd_read_blocks+0x12e>
  return spi_txrx(spi, 0xFF);
    802009e2:	0ff00593          	li	a1,255
    802009e6:	854a                	mv	a0,s2
    802009e8:	00000097          	auipc	ra,0x0
    802009ec:	ad2080e7          	jalr	-1326(ra) # 802004ba <spi_txrx>
  spi->csmode.mode = SPI_CSMODE_AUTO;
    802009f0:	01892783          	lw	a5,24(s2)
    802009f4:	9bf1                	andi	a5,a5,-4
    802009f6:	00f92c23          	sw	a5,24(s2)
    return SD_COPY_ERROR_CMD18;
    802009fa:	4b85                	li	s7,1
    802009fc:	a03d                	j	80200a2a <sd_read_blocks+0x158>
      rc = SD_COPY_ERROR_CMD18_CRC;
    802009fe:	4b89                	li	s7,2

  sd_cmd(spi, SD_CMD(SD_CMD_STOP_TRANSMISSION), 0, 0x01);
    80200a00:	4685                	li	a3,1
    80200a02:	4601                	li	a2,0
    80200a04:	04c00593          	li	a1,76
    80200a08:	854a                	mv	a0,s2
    80200a0a:	00000097          	auipc	ra,0x0
    80200a0e:	bea080e7          	jalr	-1046(ra) # 802005f4 <sd_cmd>
  return spi_txrx(spi, 0xFF);
    80200a12:	0ff00593          	li	a1,255
    80200a16:	854a                	mv	a0,s2
    80200a18:	00000097          	auipc	ra,0x0
    80200a1c:	aa2080e7          	jalr	-1374(ra) # 802004ba <spi_txrx>
  spi->csmode.mode = SPI_CSMODE_AUTO;
    80200a20:	01892783          	lw	a5,24(s2)
    80200a24:	9bf1                	andi	a5,a5,-4
    80200a26:	00f92c23          	sw	a5,24(s2)
  sd_cmd_end(spi);
  return rc;
}
    80200a2a:	855e                	mv	a0,s7
    80200a2c:	60a6                	ld	ra,72(sp)
    80200a2e:	6406                	ld	s0,64(sp)
    80200a30:	74e2                	ld	s1,56(sp)
    80200a32:	7942                	ld	s2,48(sp)
    80200a34:	79a2                	ld	s3,40(sp)
    80200a36:	7a02                	ld	s4,32(sp)
    80200a38:	6ae2                	ld	s5,24(sp)
    80200a3a:	6b42                	ld	s6,16(sp)
    80200a3c:	6ba2                	ld	s7,8(sp)
    80200a3e:	6c02                	ld	s8,0(sp)
    80200a40:	6161                	addi	sp,sp,80
    80200a42:	8082                	ret

0000000080200a44 <sd_write_blocks>:


int sd_write_blocks(spi_ctrl* spi, void* src, uint32_t dst_lba, size_t size)
{
    80200a44:	711d                	addi	sp,sp,-96
    80200a46:	ec86                	sd	ra,88(sp)
    80200a48:	e8a2                	sd	s0,80(sp)
    80200a4a:	e4a6                	sd	s1,72(sp)
    80200a4c:	e0ca                	sd	s2,64(sp)
    80200a4e:	fc4e                	sd	s3,56(sp)
    80200a50:	f852                	sd	s4,48(sp)
    80200a52:	f456                	sd	s5,40(sp)
    80200a54:	f05a                	sd	s6,32(sp)
    80200a56:	ec5e                	sd	s7,24(sp)
    80200a58:	e862                	sd	s8,16(sp)
    80200a5a:	e466                	sd	s9,8(sp)
    80200a5c:	1080                	addi	s0,sp,96
    80200a5e:	8a2a                	mv	s4,a0
    80200a60:	8aae                	mv	s5,a1
    80200a62:	84b2                	mv	s1,a2
    80200a64:	8b36                	mv	s6,a3
    volatile uint8_t *p = src;
    long i = size;
    int rc = 0;

    uint8_t crc = 0;
    crc = crc7(crc, SD_CMD(SD_CMD_WRITE_BLOCK_MULTIPLE));
    80200a66:	05900593          	li	a1,89
    80200a6a:	4501                	li	a0,0
    80200a6c:	00000097          	auipc	ra,0x0
    80200a70:	b1e080e7          	jalr	-1250(ra) # 8020058a <crc7>
    crc = crc7(crc, dst_lba >> 24);
    80200a74:	0184d59b          	srliw	a1,s1,0x18
    80200a78:	00000097          	auipc	ra,0x0
    80200a7c:	b12080e7          	jalr	-1262(ra) # 8020058a <crc7>
    crc = crc7(crc, (dst_lba >> 16) & 0xff);
    80200a80:	0104d59b          	srliw	a1,s1,0x10
    80200a84:	0ff5f593          	andi	a1,a1,255
    80200a88:	00000097          	auipc	ra,0x0
    80200a8c:	b02080e7          	jalr	-1278(ra) # 8020058a <crc7>
    crc = crc7(crc, (dst_lba >> 8) & 0xff);
    80200a90:	0084d59b          	srliw	a1,s1,0x8
    80200a94:	0ff5f593          	andi	a1,a1,255
    80200a98:	00000097          	auipc	ra,0x0
    80200a9c:	af2080e7          	jalr	-1294(ra) # 8020058a <crc7>
    crc = crc7(crc, dst_lba & 0xff);
    80200aa0:	0ff4f593          	andi	a1,s1,255
    80200aa4:	00000097          	auipc	ra,0x0
    80200aa8:	ae6080e7          	jalr	-1306(ra) # 8020058a <crc7>
    crc = (crc << 1) | 1;
    80200aac:	0015169b          	slliw	a3,a0,0x1
    80200ab0:	0016e693          	ori	a3,a3,1
    if (sd_cmd(spi, SD_CMD(SD_CMD_WRITE_BLOCK_MULTIPLE), dst_lba, crc) != 0x00) {
    80200ab4:	0ff6f693          	andi	a3,a3,255
    80200ab8:	8626                	mv	a2,s1
    80200aba:	05900593          	li	a1,89
    80200abe:	8552                	mv	a0,s4
    80200ac0:	00000097          	auipc	ra,0x0
    80200ac4:	b34080e7          	jalr	-1228(ra) # 802005f4 <sd_cmd>
    80200ac8:	ed45                	bnez	a0,80200b80 <sd_write_blocks+0x13c>
    80200aca:	8caa                	mv	s9,a0
  return spi_txrx(spi, 0xFF);
    80200acc:	0ff00593          	li	a1,255
    80200ad0:	8552                	mv	a0,s4
    80200ad2:	00000097          	auipc	ra,0x0
    80200ad6:	9e8080e7          	jalr	-1560(ra) # 802004ba <spi_txrx>
    80200ada:	0ff00593          	li	a1,255
    80200ade:	8552                	mv	a0,s4
    80200ae0:	00000097          	auipc	ra,0x0
    80200ae4:	9da080e7          	jalr	-1574(ra) # 802004ba <spi_txrx>
    80200ae8:	200a8a93          	addi	s5,s5,512

    do {
        uint16_t crc;
        long n;

        crc = 0;
    80200aec:	4c01                	li	s8,0
        } while (--n);

        sd_txrx(spi, crc >> 8);
        sd_txrx(spi, crc & 0xff);

        if ((sd_dummy(spi) & SD_DATA_RESPONSE_MASK) != SD_DATA_RESPONSE_ACCEPTED) {
    80200aee:	4b95                	li	s7,5
    80200af0:	e00a8993          	addi	s3,s5,-512
  return spi_txrx(spi, data);
    80200af4:	0fc00593          	li	a1,252
    80200af8:	8552                	mv	a0,s4
    80200afa:	00000097          	auipc	ra,0x0
    80200afe:	9c0080e7          	jalr	-1600(ra) # 802004ba <spi_txrx>
        crc = 0;
    80200b02:	8962                	mv	s2,s8
            uint8_t x = *p++;
    80200b04:	87ce                	mv	a5,s3
    80200b06:	0985                	addi	s3,s3,1
    80200b08:	0007c483          	lbu	s1,0(a5)
    80200b0c:	0ff4f493          	andi	s1,s1,255
  return spi_txrx(spi, data);
    80200b10:	85a6                	mv	a1,s1
    80200b12:	8552                	mv	a0,s4
    80200b14:	00000097          	auipc	ra,0x0
    80200b18:	9a6080e7          	jalr	-1626(ra) # 802004ba <spi_txrx>
            crc = crc16(crc, x);
    80200b1c:	85a6                	mv	a1,s1
    80200b1e:	854a                	mv	a0,s2
    80200b20:	00000097          	auipc	ra,0x0
    80200b24:	a92080e7          	jalr	-1390(ra) # 802005b2 <crc16>
    80200b28:	892a                	mv	s2,a0
        } while (--n);
    80200b2a:	fd599de3          	bne	s3,s5,80200b04 <sd_write_blocks+0xc0>
        sd_txrx(spi, crc >> 8);
    80200b2e:	0085559b          	srliw	a1,a0,0x8
  return spi_txrx(spi, data);
    80200b32:	0ff5f593          	andi	a1,a1,255
    80200b36:	8552                	mv	a0,s4
    80200b38:	00000097          	auipc	ra,0x0
    80200b3c:	982080e7          	jalr	-1662(ra) # 802004ba <spi_txrx>
    80200b40:	0ff97593          	andi	a1,s2,255
    80200b44:	8552                	mv	a0,s4
    80200b46:	00000097          	auipc	ra,0x0
    80200b4a:	974080e7          	jalr	-1676(ra) # 802004ba <spi_txrx>
  return spi_txrx(spi, 0xFF);
    80200b4e:	0ff00593          	li	a1,255
    80200b52:	8552                	mv	a0,s4
    80200b54:	00000097          	auipc	ra,0x0
    80200b58:	966080e7          	jalr	-1690(ra) # 802004ba <spi_txrx>
        if ((sd_dummy(spi) & SD_DATA_RESPONSE_MASK) != SD_DATA_RESPONSE_ACCEPTED) {
    80200b5c:	01f57793          	andi	a5,a0,31
    80200b60:	03779e63          	bne	a5,s7,80200b9c <sd_write_blocks+0x158>
  return spi_txrx(spi, 0xFF);
    80200b64:	0ff00593          	li	a1,255
    80200b68:	8552                	mv	a0,s4
    80200b6a:	00000097          	auipc	ra,0x0
    80200b6e:	950080e7          	jalr	-1712(ra) # 802004ba <spi_txrx>
            rc = SD_COPY_ERROR_CMD25_CRC;
            break;
        }

        while(sd_dummy(spi) == SD_RESPONSE_BUSY);
    80200b72:	d96d                	beqz	a0,80200b64 <sd_write_blocks+0x120>

    } while (--i);
    80200b74:	1b7d                	addi	s6,s6,-1
    80200b76:	200a8a93          	addi	s5,s5,512
    80200b7a:	f60b1be3          	bnez	s6,80200af0 <sd_write_blocks+0xac>
    80200b7e:	a005                	j	80200b9e <sd_write_blocks+0x15a>
  return spi_txrx(spi, 0xFF);
    80200b80:	0ff00593          	li	a1,255
    80200b84:	8552                	mv	a0,s4
    80200b86:	00000097          	auipc	ra,0x0
    80200b8a:	934080e7          	jalr	-1740(ra) # 802004ba <spi_txrx>
  spi->csmode.mode = SPI_CSMODE_AUTO;
    80200b8e:	018a2783          	lw	a5,24(s4)
    80200b92:	9bf1                	andi	a5,a5,-4
    80200b94:	00fa2c23          	sw	a5,24(s4)
        return SD_COPY_ERROR_CMD25;
    80200b98:	4c85                	li	s9,1
    80200b9a:	a899                	j	80200bf0 <sd_write_blocks+0x1ac>
            rc = SD_COPY_ERROR_CMD25_CRC;
    80200b9c:	4c89                	li	s9,2
  return spi_txrx(spi, data);
    80200b9e:	0fd00593          	li	a1,253
    80200ba2:	8552                	mv	a0,s4
    80200ba4:	00000097          	auipc	ra,0x0
    80200ba8:	916080e7          	jalr	-1770(ra) # 802004ba <spi_txrx>
  return spi_txrx(spi, 0xFF);
    80200bac:	0ff00593          	li	a1,255
    80200bb0:	8552                	mv	a0,s4
    80200bb2:	00000097          	auipc	ra,0x0
    80200bb6:	908080e7          	jalr	-1784(ra) # 802004ba <spi_txrx>
    80200bba:	0ff00593          	li	a1,255
    80200bbe:	8552                	mv	a0,s4
    80200bc0:	00000097          	auipc	ra,0x0
    80200bc4:	8fa080e7          	jalr	-1798(ra) # 802004ba <spi_txrx>
    80200bc8:	0ff00593          	li	a1,255
    80200bcc:	8552                	mv	a0,s4
    80200bce:	00000097          	auipc	ra,0x0
    80200bd2:	8ec080e7          	jalr	-1812(ra) # 802004ba <spi_txrx>

    // magic!
    sd_dummy(spi);
    sd_dummy(spi);

    while(sd_dummy(spi) == SD_RESPONSE_BUSY);
    80200bd6:	d96d                	beqz	a0,80200bc8 <sd_write_blocks+0x184>
  return spi_txrx(spi, 0xFF);
    80200bd8:	0ff00593          	li	a1,255
    80200bdc:	8552                	mv	a0,s4
    80200bde:	00000097          	auipc	ra,0x0
    80200be2:	8dc080e7          	jalr	-1828(ra) # 802004ba <spi_txrx>
  spi->csmode.mode = SPI_CSMODE_AUTO;
    80200be6:	018a2783          	lw	a5,24(s4)
    80200bea:	9bf1                	andi	a5,a5,-4
    80200bec:	00fa2c23          	sw	a5,24(s4)
    sd_cmd_end(spi);
    return rc;
}
    80200bf0:	8566                	mv	a0,s9
    80200bf2:	60e6                	ld	ra,88(sp)
    80200bf4:	6446                	ld	s0,80(sp)
    80200bf6:	64a6                	ld	s1,72(sp)
    80200bf8:	6906                	ld	s2,64(sp)
    80200bfa:	79e2                	ld	s3,56(sp)
    80200bfc:	7a42                	ld	s4,48(sp)
    80200bfe:	7aa2                	ld	s5,40(sp)
    80200c00:	7b02                	ld	s6,32(sp)
    80200c02:	6be2                	ld	s7,24(sp)
    80200c04:	6c42                	ld	s8,16(sp)
    80200c06:	6ca2                	ld	s9,8(sp)
    80200c08:	6125                	addi	sp,sp,96
    80200c0a:	8082                	ret

0000000080200c0c <disk_status>:
/*-----------------------------------------------------------------------*/

DSTATUS disk_status (
	BYTE pdrv		/* Physical drive nmuber to identify the drive */
)
{
    80200c0c:	1141                	addi	sp,sp,-16
    80200c0e:	e422                	sd	s0,8(sp)
    80200c10:	0800                	addi	s0,sp,16
	return pdrv == DEV_MMC ? RES_OK : RES_PARERR;
    80200c12:	e501                	bnez	a0,80200c1a <disk_status+0xe>
}
    80200c14:	6422                	ld	s0,8(sp)
    80200c16:	0141                	addi	sp,sp,16
    80200c18:	8082                	ret
	return pdrv == DEV_MMC ? RES_OK : RES_PARERR;
    80200c1a:	4511                	li	a0,4
    80200c1c:	bfe5                	j	80200c14 <disk_status+0x8>

0000000080200c1e <disk_initialize>:
	BYTE pdrv				/* Physical drive nmuber to identify the drive */
)
{
	int result;

	if (pdrv != DEV_MMC){
    80200c1e:	e121                	bnez	a0,80200c5e <disk_initialize+0x40>
{
    80200c20:	1141                	addi	sp,sp,-16
    80200c22:	e406                	sd	ra,8(sp)
    80200c24:	e022                	sd	s0,0(sp)
    80200c26:	0800                	addi	s0,sp,16
        return RES_PARERR;
    }
    printf("diskinit\n");
    80200c28:	00011517          	auipc	a0,0x11
    80200c2c:	44850513          	addi	a0,a0,1096 # 80212070 <rodata_start+0x70>
    80200c30:	00008097          	auipc	ra,0x8
    80200c34:	b00080e7          	jalr	-1280(ra) # 80208730 <printf>
    result = sd_init(spictrl, peripheral_input_khz, 0);
    80200c38:	4601                	li	a2,0
    80200c3a:	0007a5b7          	lui	a1,0x7a
    80200c3e:	12058593          	addi	a1,a1,288 # 7a120 <_entry-0x80185ee0>
    80200c42:	003f1537          	lui	a0,0x3f1
    80200c46:	0515                	addi	a0,a0,5
    80200c48:	0542                	slli	a0,a0,0x10
    80200c4a:	00000097          	auipc	ra,0x0
    80200c4e:	a64080e7          	jalr	-1436(ra) # 802006ae <sd_init>
    return result == 0 ? RES_OK : RES_ERROR;
    80200c52:	00a03533          	snez	a0,a0
}
    80200c56:	60a2                	ld	ra,8(sp)
    80200c58:	6402                	ld	s0,0(sp)
    80200c5a:	0141                	addi	sp,sp,16
    80200c5c:	8082                	ret
        return RES_PARERR;
    80200c5e:	4511                	li	a0,4
}
    80200c60:	8082                	ret

0000000080200c62 <disk_read>:
	UINT count		/* Number of sectors to read */
)
{
	int result;

    if (pdrv != DEV_MMC){
    80200c62:	e515                	bnez	a0,80200c8e <disk_read+0x2c>
{
    80200c64:	1141                	addi	sp,sp,-16
    80200c66:	e406                	sd	ra,8(sp)
    80200c68:	e022                	sd	s0,0(sp)
    80200c6a:	0800                	addi	s0,sp,16
        return RES_PARERR;
    }

//    KERNEL_ASSERT(sector <= (uint64_t) UINT32_MAX, "sector must be 32 bits");
//    printf("read sector = %d begin, count = %d\n", sector, count);
    result = sd_read_blocks(spictrl, buff, sector, count);
    80200c6c:	1682                	slli	a3,a3,0x20
    80200c6e:	9281                	srli	a3,a3,0x20
    80200c70:	2601                	sext.w	a2,a2
    80200c72:	003f1537          	lui	a0,0x3f1
    80200c76:	0515                	addi	a0,a0,5
    80200c78:	0542                	slli	a0,a0,0x10
    80200c7a:	00000097          	auipc	ra,0x0
    80200c7e:	c58080e7          	jalr	-936(ra) # 802008d2 <sd_read_blocks>
//    printf("read sector end, result = %d\n", result);

    return result == 0 ? RES_OK : RES_ERROR;
    80200c82:	00a03533          	snez	a0,a0
}
    80200c86:	60a2                	ld	ra,8(sp)
    80200c88:	6402                	ld	s0,0(sp)
    80200c8a:	0141                	addi	sp,sp,16
    80200c8c:	8082                	ret
        return RES_PARERR;
    80200c8e:	4511                	li	a0,4
}
    80200c90:	8082                	ret

0000000080200c92 <disk_write>:
	UINT count			/* Number of sectors to write */
)
{
	int result;

    if (pdrv != DEV_MMC){
    80200c92:	e515                	bnez	a0,80200cbe <disk_write+0x2c>
{
    80200c94:	1141                	addi	sp,sp,-16
    80200c96:	e406                	sd	ra,8(sp)
    80200c98:	e022                	sd	s0,0(sp)
    80200c9a:	0800                	addi	s0,sp,16
        return RES_PARERR;
    }

//    KERNEL_ASSERT(sector <= (uint64_t) UINT32_MAX, "sector must be 32 bits");
//    printf("write sector = %d begin, count = %d\n", sector, count);
    result = sd_write_blocks(spictrl, (void*)buff, sector, count);
    80200c9c:	1682                	slli	a3,a3,0x20
    80200c9e:	9281                	srli	a3,a3,0x20
    80200ca0:	2601                	sext.w	a2,a2
    80200ca2:	003f1537          	lui	a0,0x3f1
    80200ca6:	0515                	addi	a0,a0,5
    80200ca8:	0542                	slli	a0,a0,0x10
    80200caa:	00000097          	auipc	ra,0x0
    80200cae:	d9a080e7          	jalr	-614(ra) # 80200a44 <sd_write_blocks>
//    printf("write sector end, result = %d\n", result);
    return result == 0 ? RES_OK : RES_ERROR;
    80200cb2:	00a03533          	snez	a0,a0
}
    80200cb6:	60a2                	ld	ra,8(sp)
    80200cb8:	6402                	ld	s0,0(sp)
    80200cba:	0141                	addi	sp,sp,16
    80200cbc:	8082                	ret
        return RES_PARERR;
    80200cbe:	4511                	li	a0,4
}
    80200cc0:	8082                	ret

0000000080200cc2 <disk_ioctl>:
DRESULT disk_ioctl (
	BYTE pdrv,		/* Physical drive nmuber (0..) */
	BYTE cmd,		/* Control code */
	void *buff		/* Buffer to send/receive control data */
)
{
    80200cc2:	1141                	addi	sp,sp,-16
    80200cc4:	e422                	sd	s0,8(sp)
    80200cc6:	0800                	addi	s0,sp,16
    DRESULT res;

    if (pdrv != DEV_MMC){
    80200cc8:	e91d                	bnez	a0,80200cfe <disk_ioctl+0x3c>
        return RES_PARERR;
    }

    switch (cmd) {
    80200cca:	4789                	li	a5,2
    80200ccc:	02f58363          	beq	a1,a5,80200cf2 <disk_ioctl+0x30>
    80200cd0:	00b7e863          	bltu	a5,a1,80200ce0 <disk_ioctl+0x1e>
    80200cd4:	c595                	beqz	a1,80200d00 <disk_ioctl+0x3e>
    case CTRL_SYNC:
        res = RES_OK;
        break;
    case GET_SECTOR_COUNT:
        *(DWORD*)buff = 13631488;
    80200cd6:	00d007b7          	lui	a5,0xd00
    80200cda:	c21c                	sw	a5,0(a2)
        res = RES_OK;
    80200cdc:	4501                	li	a0,0
        break;
    80200cde:	a00d                	j	80200d00 <disk_ioctl+0x3e>
    switch (cmd) {
    80200ce0:	478d                	li	a5,3
    80200ce2:	4511                	li	a0,4
    80200ce4:	00f59e63          	bne	a1,a5,80200d00 <disk_ioctl+0x3e>
    case GET_SECTOR_SIZE:
        *(WORD*)buff = 512;
        res = RES_OK;
        break;
    case GET_BLOCK_SIZE:
        *(WORD*)buff = 4096;
    80200ce8:	6785                	lui	a5,0x1
    80200cea:	00f61023          	sh	a5,0(a2) # 40000000 <_entry-0x40200000>
        res = RES_OK;
    80200cee:	4501                	li	a0,0
        break;
    80200cf0:	a801                	j	80200d00 <disk_ioctl+0x3e>
        *(WORD*)buff = 512;
    80200cf2:	20000793          	li	a5,512
    80200cf6:	00f61023          	sh	a5,0(a2)
        res = RES_OK;
    80200cfa:	4501                	li	a0,0
        break;
    80200cfc:	a011                	j	80200d00 <disk_ioctl+0x3e>
        return RES_PARERR;
    80200cfe:	4511                	li	a0,4
        res = RES_PARERR;
        break;
    }

    return res;
}
    80200d00:	6422                	ld	s0,8(sp)
    80200d02:	0141                	addi	sp,sp,16
    80200d04:	8082                	ret

0000000080200d06 <disk_init>:
#endif

int disk_init_flag;
void disk_init(void)
{
    if(disk_init_flag)return;
    80200d06:	00847797          	auipc	a5,0x847
    80200d0a:	49a7a783          	lw	a5,1178(a5) # 80a481a0 <disk_init_flag>
    80200d0e:	c391                	beqz	a5,80200d12 <disk_init+0xc>
    80200d10:	8082                	ret
{
    80200d12:	1141                	addi	sp,sp,-16
    80200d14:	e406                	sd	ra,8(sp)
    80200d16:	e022                	sd	s0,0(sp)
    80200d18:	0800                	addi	s0,sp,16
    else disk_init_flag = 1;
    80200d1a:	4785                	li	a5,1
    80200d1c:	00847717          	auipc	a4,0x847
    80200d20:	48f72223          	sw	a5,1156(a4) # 80a481a0 <disk_init_flag>
    #ifdef RAM
    ramdisk_init();
    80200d24:	fffff097          	auipc	ra,0xfffff
    80200d28:	65e080e7          	jalr	1630(ra) # 80200382 <ramdisk_init>
    #else
    disk_initialize(0);
    #endif
}
    80200d2c:	60a2                	ld	ra,8(sp)
    80200d2e:	6402                	ld	s0,0(sp)
    80200d30:	0141                	addi	sp,sp,16
    80200d32:	8082                	ret

0000000080200d34 <vdisk_read>:

void vdisk_read(struct buf *b)
{
    80200d34:	1141                	addi	sp,sp,-16
    80200d36:	e406                	sd	ra,8(sp)
    80200d38:	e022                	sd	s0,0(sp)
    80200d3a:	0800                	addi	s0,sp,16
    #ifdef RAM    
	ramdisk_rw(b, 0);
    80200d3c:	4581                	li	a1,0
    80200d3e:	fffff097          	auipc	ra,0xfffff
    80200d42:	694080e7          	jalr	1684(ra) # 802003d2 <ramdisk_rw>
    #else 
	disk_read(0,b->data, b->sectorno,1);
    #endif
}
    80200d46:	60a2                	ld	ra,8(sp)
    80200d48:	6402                	ld	s0,0(sp)
    80200d4a:	0141                	addi	sp,sp,16
    80200d4c:	8082                	ret

0000000080200d4e <vdisk_write>:

void vdisk_write(struct buf *b)
{
    80200d4e:	1141                	addi	sp,sp,-16
    80200d50:	e406                	sd	ra,8(sp)
    80200d52:	e022                	sd	s0,0(sp)
    80200d54:	0800                	addi	s0,sp,16
    #ifdef RAM
    	ramdisk_rw(b, 1);
    80200d56:	4585                	li	a1,1
    80200d58:	fffff097          	auipc	ra,0xfffff
    80200d5c:	67a080e7          	jalr	1658(ra) # 802003d2 <ramdisk_rw>
    #else 
	disk_write(0,b->data, b->sectorno,1);
    #endif
}
    80200d60:	60a2                	ld	ra,8(sp)
    80200d62:	6402                	ld	s0,0(sp)
    80200d64:	0141                	addi	sp,sp,16
    80200d66:	8082                	ret

0000000080200d68 <disk_intr>:

void disk_intr(void)
{
    80200d68:	1141                	addi	sp,sp,-16
    80200d6a:	e422                	sd	s0,8(sp)
    80200d6c:	0800                	addi	s0,sp,16
    #ifdef SD
        // dmac_intr(DMAC_CHANNEL0);
    #endif
}
    80200d6e:	6422                	ld	s0,8(sp)
    80200d70:	0141                	addi	sp,sp,16
    80200d72:	8082                	ret

0000000080200d74 <memset>:
#include "include/types.h"

void*
memset(void *dst, int c, uint n)
{
    80200d74:	1141                	addi	sp,sp,-16
    80200d76:	e422                	sd	s0,8(sp)
    80200d78:	0800                	addi	s0,sp,16
  char *cdst = (char *) dst;
  int i;
  for(i = 0; i < n; i++){
    80200d7a:	ce09                	beqz	a2,80200d94 <memset+0x20>
    80200d7c:	87aa                	mv	a5,a0
    80200d7e:	fff6071b          	addiw	a4,a2,-1
    80200d82:	1702                	slli	a4,a4,0x20
    80200d84:	9301                	srli	a4,a4,0x20
    80200d86:	0705                	addi	a4,a4,1
    80200d88:	972a                	add	a4,a4,a0
    cdst[i] = c;
    80200d8a:	00b78023          	sb	a1,0(a5)
  for(i = 0; i < n; i++){
    80200d8e:	0785                	addi	a5,a5,1
    80200d90:	fee79de3          	bne	a5,a4,80200d8a <memset+0x16>
  }
  return dst;
}
    80200d94:	6422                	ld	s0,8(sp)
    80200d96:	0141                	addi	sp,sp,16
    80200d98:	8082                	ret

0000000080200d9a <memcmp>:

int
memcmp(const void *v1, const void *v2, uint n)
{
    80200d9a:	1141                	addi	sp,sp,-16
    80200d9c:	e422                	sd	s0,8(sp)
    80200d9e:	0800                	addi	s0,sp,16
  const uchar *s1, *s2;

  s1 = v1;
  s2 = v2;
  while(n-- > 0){
    80200da0:	ca05                	beqz	a2,80200dd0 <memcmp+0x36>
    80200da2:	fff6069b          	addiw	a3,a2,-1
    80200da6:	1682                	slli	a3,a3,0x20
    80200da8:	9281                	srli	a3,a3,0x20
    80200daa:	0685                	addi	a3,a3,1
    80200dac:	96aa                	add	a3,a3,a0
    if(*s1 != *s2)
    80200dae:	00054783          	lbu	a5,0(a0) # 3f1000 <_entry-0x7fe0f000>
    80200db2:	0005c703          	lbu	a4,0(a1)
    80200db6:	00e79863          	bne	a5,a4,80200dc6 <memcmp+0x2c>
      return *s1 - *s2;
    s1++, s2++;
    80200dba:	0505                	addi	a0,a0,1
    80200dbc:	0585                	addi	a1,a1,1
  while(n-- > 0){
    80200dbe:	fed518e3          	bne	a0,a3,80200dae <memcmp+0x14>
  }

  return 0;
    80200dc2:	4501                	li	a0,0
    80200dc4:	a019                	j	80200dca <memcmp+0x30>
      return *s1 - *s2;
    80200dc6:	40e7853b          	subw	a0,a5,a4
}
    80200dca:	6422                	ld	s0,8(sp)
    80200dcc:	0141                	addi	sp,sp,16
    80200dce:	8082                	ret
  return 0;
    80200dd0:	4501                	li	a0,0
    80200dd2:	bfe5                	j	80200dca <memcmp+0x30>

0000000080200dd4 <memmove>:

void*
memmove(void *dst, const void *src, uint n)
{
    80200dd4:	1141                	addi	sp,sp,-16
    80200dd6:	e422                	sd	s0,8(sp)
    80200dd8:	0800                	addi	s0,sp,16
  const char *s;
  char *d;

  s = src;
  d = dst;
  if(s < d && s + n > d){
    80200dda:	00a5f963          	bgeu	a1,a0,80200dec <memmove+0x18>
    80200dde:	02061713          	slli	a4,a2,0x20
    80200de2:	9301                	srli	a4,a4,0x20
    80200de4:	00e587b3          	add	a5,a1,a4
    80200de8:	02f56563          	bltu	a0,a5,80200e12 <memmove+0x3e>
    s += n;
    d += n;
    while(n-- > 0)
      *--d = *--s;
  } else
    while(n-- > 0)
    80200dec:	fff6069b          	addiw	a3,a2,-1
    80200df0:	ce11                	beqz	a2,80200e0c <memmove+0x38>
    80200df2:	1682                	slli	a3,a3,0x20
    80200df4:	9281                	srli	a3,a3,0x20
    80200df6:	0685                	addi	a3,a3,1
    80200df8:	96ae                	add	a3,a3,a1
    80200dfa:	87aa                	mv	a5,a0
      *d++ = *s++;
    80200dfc:	0585                	addi	a1,a1,1
    80200dfe:	0785                	addi	a5,a5,1
    80200e00:	fff5c703          	lbu	a4,-1(a1)
    80200e04:	fee78fa3          	sb	a4,-1(a5)
    while(n-- > 0)
    80200e08:	fed59ae3          	bne	a1,a3,80200dfc <memmove+0x28>

  return dst;
}
    80200e0c:	6422                	ld	s0,8(sp)
    80200e0e:	0141                	addi	sp,sp,16
    80200e10:	8082                	ret
    d += n;
    80200e12:	972a                	add	a4,a4,a0
    while(n-- > 0)
    80200e14:	fff6069b          	addiw	a3,a2,-1
    80200e18:	da75                	beqz	a2,80200e0c <memmove+0x38>
    80200e1a:	02069613          	slli	a2,a3,0x20
    80200e1e:	9201                	srli	a2,a2,0x20
    80200e20:	fff64613          	not	a2,a2
    80200e24:	963e                	add	a2,a2,a5
      *--d = *--s;
    80200e26:	17fd                	addi	a5,a5,-1
    80200e28:	177d                	addi	a4,a4,-1
    80200e2a:	0007c683          	lbu	a3,0(a5)
    80200e2e:	00d70023          	sb	a3,0(a4)
    while(n-- > 0)
    80200e32:	fec79ae3          	bne	a5,a2,80200e26 <memmove+0x52>
    80200e36:	bfd9                	j	80200e0c <memmove+0x38>

0000000080200e38 <memcpy>:

// memcpy exists to placate GCC.  Use memmove.
void*
memcpy(void *dst, const void *src, uint n)
{
    80200e38:	1141                	addi	sp,sp,-16
    80200e3a:	e406                	sd	ra,8(sp)
    80200e3c:	e022                	sd	s0,0(sp)
    80200e3e:	0800                	addi	s0,sp,16
  return memmove(dst, src, n);
    80200e40:	00000097          	auipc	ra,0x0
    80200e44:	f94080e7          	jalr	-108(ra) # 80200dd4 <memmove>
}
    80200e48:	60a2                	ld	ra,8(sp)
    80200e4a:	6402                	ld	s0,0(sp)
    80200e4c:	0141                	addi	sp,sp,16
    80200e4e:	8082                	ret

0000000080200e50 <strncmp>:

int
strncmp(const char *p, const char *q, uint n)
{
    80200e50:	1141                	addi	sp,sp,-16
    80200e52:	e422                	sd	s0,8(sp)
    80200e54:	0800                	addi	s0,sp,16
  while(n > 0 && *p && *p == *q)
    80200e56:	ce11                	beqz	a2,80200e72 <strncmp+0x22>
    80200e58:	00054783          	lbu	a5,0(a0)
    80200e5c:	cf89                	beqz	a5,80200e76 <strncmp+0x26>
    80200e5e:	0005c703          	lbu	a4,0(a1)
    80200e62:	00f71a63          	bne	a4,a5,80200e76 <strncmp+0x26>
    n--, p++, q++;
    80200e66:	367d                	addiw	a2,a2,-1
    80200e68:	0505                	addi	a0,a0,1
    80200e6a:	0585                	addi	a1,a1,1
  while(n > 0 && *p && *p == *q)
    80200e6c:	f675                	bnez	a2,80200e58 <strncmp+0x8>
  if(n == 0)
    return 0;
    80200e6e:	4501                	li	a0,0
    80200e70:	a809                	j	80200e82 <strncmp+0x32>
    80200e72:	4501                	li	a0,0
    80200e74:	a039                	j	80200e82 <strncmp+0x32>
  if(n == 0)
    80200e76:	ca09                	beqz	a2,80200e88 <strncmp+0x38>
  return (uchar)*p - (uchar)*q;
    80200e78:	00054503          	lbu	a0,0(a0)
    80200e7c:	0005c783          	lbu	a5,0(a1)
    80200e80:	9d1d                	subw	a0,a0,a5
}
    80200e82:	6422                	ld	s0,8(sp)
    80200e84:	0141                	addi	sp,sp,16
    80200e86:	8082                	ret
    return 0;
    80200e88:	4501                	li	a0,0
    80200e8a:	bfe5                	j	80200e82 <strncmp+0x32>

0000000080200e8c <strncpy>:

char*
strncpy(char *s, const char *t, int n)
{
    80200e8c:	1141                	addi	sp,sp,-16
    80200e8e:	e422                	sd	s0,8(sp)
    80200e90:	0800                	addi	s0,sp,16
  char *os;

  os = s;
  while(n-- > 0 && (*s++ = *t++) != 0)
    80200e92:	872a                	mv	a4,a0
    80200e94:	8832                	mv	a6,a2
    80200e96:	367d                	addiw	a2,a2,-1
    80200e98:	01005963          	blez	a6,80200eaa <strncpy+0x1e>
    80200e9c:	0705                	addi	a4,a4,1
    80200e9e:	0005c783          	lbu	a5,0(a1)
    80200ea2:	fef70fa3          	sb	a5,-1(a4)
    80200ea6:	0585                	addi	a1,a1,1
    80200ea8:	f7f5                	bnez	a5,80200e94 <strncpy+0x8>
    ;
  while(n-- > 0)
    80200eaa:	00c05d63          	blez	a2,80200ec4 <strncpy+0x38>
    80200eae:	86ba                	mv	a3,a4
    *s++ = 0;
    80200eb0:	0685                	addi	a3,a3,1
    80200eb2:	fe068fa3          	sb	zero,-1(a3)
  while(n-- > 0)
    80200eb6:	fff6c793          	not	a5,a3
    80200eba:	9fb9                	addw	a5,a5,a4
    80200ebc:	010787bb          	addw	a5,a5,a6
    80200ec0:	fef048e3          	bgtz	a5,80200eb0 <strncpy+0x24>
  return os;
}
    80200ec4:	6422                	ld	s0,8(sp)
    80200ec6:	0141                	addi	sp,sp,16
    80200ec8:	8082                	ret

0000000080200eca <safestrcpy>:

// Like strncpy but guaranteed to NUL-terminate.
char*
safestrcpy(char *s, const char *t, int n)
{
    80200eca:	1141                	addi	sp,sp,-16
    80200ecc:	e422                	sd	s0,8(sp)
    80200ece:	0800                	addi	s0,sp,16
  char *os;

  os = s;
  if(n <= 0)
    80200ed0:	02c05363          	blez	a2,80200ef6 <safestrcpy+0x2c>
    80200ed4:	fff6069b          	addiw	a3,a2,-1
    80200ed8:	1682                	slli	a3,a3,0x20
    80200eda:	9281                	srli	a3,a3,0x20
    80200edc:	96ae                	add	a3,a3,a1
    80200ede:	87aa                	mv	a5,a0
    return os;
  while(--n > 0 && (*s++ = *t++) != 0)
    80200ee0:	00d58963          	beq	a1,a3,80200ef2 <safestrcpy+0x28>
    80200ee4:	0585                	addi	a1,a1,1
    80200ee6:	0785                	addi	a5,a5,1
    80200ee8:	fff5c703          	lbu	a4,-1(a1)
    80200eec:	fee78fa3          	sb	a4,-1(a5)
    80200ef0:	fb65                	bnez	a4,80200ee0 <safestrcpy+0x16>
    ;
  *s = 0;
    80200ef2:	00078023          	sb	zero,0(a5)
  return os;
}
    80200ef6:	6422                	ld	s0,8(sp)
    80200ef8:	0141                	addi	sp,sp,16
    80200efa:	8082                	ret

0000000080200efc <strlen>:

int
strlen(const char *s)
{
    80200efc:	1141                	addi	sp,sp,-16
    80200efe:	e422                	sd	s0,8(sp)
    80200f00:	0800                	addi	s0,sp,16
  int n;

  for(n = 0; s[n]; n++)
    80200f02:	00054783          	lbu	a5,0(a0)
    80200f06:	cf91                	beqz	a5,80200f22 <strlen+0x26>
    80200f08:	0505                	addi	a0,a0,1
    80200f0a:	87aa                	mv	a5,a0
    80200f0c:	4685                	li	a3,1
    80200f0e:	9e89                	subw	a3,a3,a0
    80200f10:	00f6853b          	addw	a0,a3,a5
    80200f14:	0785                	addi	a5,a5,1
    80200f16:	fff7c703          	lbu	a4,-1(a5)
    80200f1a:	fb7d                	bnez	a4,80200f10 <strlen+0x14>
    ;
  return n;
}
    80200f1c:	6422                	ld	s0,8(sp)
    80200f1e:	0141                	addi	sp,sp,16
    80200f20:	8082                	ret
  for(n = 0; s[n]; n++)
    80200f22:	4501                	li	a0,0
    80200f24:	bfe5                	j	80200f1c <strlen+0x20>

0000000080200f26 <wnstr>:

// convert uchar string into wide char string 
void wnstr(wchar *dst, char const *src, int len) {
    80200f26:	1141                	addi	sp,sp,-16
    80200f28:	e422                	sd	s0,8(sp)
    80200f2a:	0800                	addi	s0,sp,16
  while (len -- && *src) {
    80200f2c:	c215                	beqz	a2,80200f50 <wnstr+0x2a>
    80200f2e:	fff6071b          	addiw	a4,a2,-1
    80200f32:	1702                	slli	a4,a4,0x20
    80200f34:	9301                	srli	a4,a4,0x20
    80200f36:	0705                	addi	a4,a4,1
    80200f38:	0706                	slli	a4,a4,0x1
    80200f3a:	972a                	add	a4,a4,a0
    80200f3c:	0005c783          	lbu	a5,0(a1)
    80200f40:	cb81                	beqz	a5,80200f50 <wnstr+0x2a>
    *(uchar*)dst = *src++;
    80200f42:	0585                	addi	a1,a1,1
    80200f44:	00f50023          	sb	a5,0(a0)
    dst ++;
    80200f48:	0509                	addi	a0,a0,2
  while (len -- && *src) {
    80200f4a:	fee519e3          	bne	a0,a4,80200f3c <wnstr+0x16>
    dst ++;
    80200f4e:	853a                	mv	a0,a4
  }

  *dst = 0;
    80200f50:	00051023          	sh	zero,0(a0)
}
    80200f54:	6422                	ld	s0,8(sp)
    80200f56:	0141                	addi	sp,sp,16
    80200f58:	8082                	ret

0000000080200f5a <snstr>:

// convert wide char string into uchar string 
void snstr(char *dst, wchar const *src, int len) {
    80200f5a:	1141                	addi	sp,sp,-16
    80200f5c:	e422                	sd	s0,8(sp)
    80200f5e:	0800                	addi	s0,sp,16
  while (len -- && *src) {
    80200f60:	c221                	beqz	a2,80200fa0 <snstr+0x46>
    80200f62:	fff6079b          	addiw	a5,a2,-1
    80200f66:	fff6069b          	addiw	a3,a2,-1
    80200f6a:	1682                	slli	a3,a3,0x20
    80200f6c:	9281                	srli	a3,a3,0x20
    80200f6e:	0685                	addi	a3,a3,1
    80200f70:	96aa                	add	a3,a3,a0
    80200f72:	0005d703          	lhu	a4,0(a1)
    80200f76:	cb09                	beqz	a4,80200f88 <snstr+0x2e>
    *dst++ = (uchar)(*src & 0xff);
    80200f78:	0505                	addi	a0,a0,1
    80200f7a:	fee50fa3          	sb	a4,-1(a0)
    src ++;
    80200f7e:	0589                	addi	a1,a1,2
  while (len -- && *src) {
    80200f80:	37fd                	addiw	a5,a5,-1
    80200f82:	fed518e3          	bne	a0,a3,80200f72 <snstr+0x18>
    *dst++ = (uchar)(*src & 0xff);
    80200f86:	8536                	mv	a0,a3
  }
  while(len-- > 0)
    80200f88:	00f05c63          	blez	a5,80200fa0 <snstr+0x46>
    80200f8c:	37fd                	addiw	a5,a5,-1
    80200f8e:	1782                	slli	a5,a5,0x20
    80200f90:	9381                	srli	a5,a5,0x20
    80200f92:	0785                	addi	a5,a5,1
    80200f94:	97aa                	add	a5,a5,a0
    *dst++ = 0;
    80200f96:	0505                	addi	a0,a0,1
    80200f98:	fe050fa3          	sb	zero,-1(a0)
  while(len-- > 0)
    80200f9c:	fea79de3          	bne	a5,a0,80200f96 <snstr+0x3c>
}
    80200fa0:	6422                	ld	s0,8(sp)
    80200fa2:	0141                	addi	sp,sp,16
    80200fa4:	8082                	ret

0000000080200fa6 <wcsncmp>:

int wcsncmp(wchar const *s1, wchar const *s2, int len) {
    80200fa6:	1141                	addi	sp,sp,-16
    80200fa8:	e422                	sd	s0,8(sp)
    80200faa:	0800                	addi	s0,sp,16
    80200fac:	872a                	mv	a4,a0
  int ret = 0;

  while (len-- && *s1) {
    80200fae:	02061693          	slli	a3,a2,0x20
    80200fb2:	9281                	srli	a3,a3,0x20
    80200fb4:	0686                	slli	a3,a3,0x1
    80200fb6:	96ae                	add	a3,a3,a1
    80200fb8:	00d58f63          	beq	a1,a3,80200fd6 <wcsncmp+0x30>
    80200fbc:	00075783          	lhu	a5,0(a4)
    80200fc0:	cb89                	beqz	a5,80200fd2 <wcsncmp+0x2c>
    ret = (int)(*s1++ - *s2++);
    80200fc2:	0709                	addi	a4,a4,2
    80200fc4:	0589                	addi	a1,a1,2
    80200fc6:	ffe5d503          	lhu	a0,-2(a1)
    80200fca:	40a7853b          	subw	a0,a5,a0
    if (ret) break;
    80200fce:	d56d                	beqz	a0,80200fb8 <wcsncmp+0x12>
    80200fd0:	a021                	j	80200fd8 <wcsncmp+0x32>
    80200fd2:	4501                	li	a0,0
    80200fd4:	a011                	j	80200fd8 <wcsncmp+0x32>
    80200fd6:	4501                	li	a0,0
  }

  return ret;
}
    80200fd8:	6422                	ld	s0,8(sp)
    80200fda:	0141                	addi	sp,sp,16
    80200fdc:	8082                	ret

0000000080200fde <strchr>:

char*
strchr(const char *s, char c)
{
    80200fde:	1141                	addi	sp,sp,-16
    80200fe0:	e422                	sd	s0,8(sp)
    80200fe2:	0800                	addi	s0,sp,16
  for(; *s; s++)
    80200fe4:	00054783          	lbu	a5,0(a0)
    80200fe8:	cb99                	beqz	a5,80200ffe <strchr+0x20>
    if(*s == c)
    80200fea:	00f58763          	beq	a1,a5,80200ff8 <strchr+0x1a>
  for(; *s; s++)
    80200fee:	0505                	addi	a0,a0,1
    80200ff0:	00054783          	lbu	a5,0(a0)
    80200ff4:	fbfd                	bnez	a5,80200fea <strchr+0xc>
      return (char*)s;
  return 0;
    80200ff6:	4501                	li	a0,0
    80200ff8:	6422                	ld	s0,8(sp)
    80200ffa:	0141                	addi	sp,sp,16
    80200ffc:	8082                	ret
  return 0;
    80200ffe:	4501                	li	a0,0
    80201000:	bfe5                	j	80200ff8 <strchr+0x1a>

0000000080201002 <push_off>:
// it takes two pop_off()s to undo two push_off()s.  Also, if interrupts
// are initially off, then push_off, pop_off leaves them off.

void
push_off(void)
{
    80201002:	1101                	addi	sp,sp,-32
    80201004:	ec06                	sd	ra,24(sp)
    80201006:	e822                	sd	s0,16(sp)
    80201008:	e426                	sd	s1,8(sp)
    8020100a:	1000                	addi	s0,sp,32

static inline uint64
r_sstatus()
{
  uint64 x;
  asm volatile("csrr %0, sstatus" : "=r" (x) );
    8020100c:	100024f3          	csrr	s1,sstatus
    80201010:	100027f3          	csrr	a5,sstatus

// disable device interrupts
static inline void
intr_off()
{
  w_sstatus(r_sstatus() & ~SSTATUS_SIE);
    80201014:	9bf5                	andi	a5,a5,-3
  asm volatile("csrw sstatus, %0" : : "r" (x));
    80201016:	10079073          	csrw	sstatus,a5
  int old = intr_get();

  intr_off();
  //printf("\e[32mpush_off()\e[0m: cpuid(): %d\n", cpuid());
  if(mycpu()->noff == 0)
    8020101a:	0000a097          	auipc	ra,0xa
    8020101e:	416080e7          	jalr	1046(ra) # 8020b430 <mycpu>
    80201022:	5d3c                	lw	a5,120(a0)
    80201024:	cf89                	beqz	a5,8020103e <push_off+0x3c>
    mycpu()->intena = old;
  mycpu()->noff += 1;
    80201026:	0000a097          	auipc	ra,0xa
    8020102a:	40a080e7          	jalr	1034(ra) # 8020b430 <mycpu>
    8020102e:	5d3c                	lw	a5,120(a0)
    80201030:	2785                	addiw	a5,a5,1
    80201032:	dd3c                	sw	a5,120(a0)
}
    80201034:	60e2                	ld	ra,24(sp)
    80201036:	6442                	ld	s0,16(sp)
    80201038:	64a2                	ld	s1,8(sp)
    8020103a:	6105                	addi	sp,sp,32
    8020103c:	8082                	ret
    mycpu()->intena = old;
    8020103e:	0000a097          	auipc	ra,0xa
    80201042:	3f2080e7          	jalr	1010(ra) # 8020b430 <mycpu>
// are device interrupts enabled?
static inline int
intr_get()
{
  uint64 x = r_sstatus();
  return (x & SSTATUS_SIE) != 0;
    80201046:	8085                	srli	s1,s1,0x1
    80201048:	8885                	andi	s1,s1,1
    8020104a:	dd64                	sw	s1,124(a0)
    8020104c:	bfe9                	j	80201026 <push_off+0x24>

000000008020104e <pop_off>:

void
pop_off(void)
{
    8020104e:	1141                	addi	sp,sp,-16
    80201050:	e406                	sd	ra,8(sp)
    80201052:	e022                	sd	s0,0(sp)
    80201054:	0800                	addi	s0,sp,16
  struct cpu *c = mycpu();
    80201056:	0000a097          	auipc	ra,0xa
    8020105a:	3da080e7          	jalr	986(ra) # 8020b430 <mycpu>
  asm volatile("csrr %0, sstatus" : "=r" (x) );
    8020105e:	100027f3          	csrr	a5,sstatus
  return (x & SSTATUS_SIE) != 0;
    80201062:	8b89                	andi	a5,a5,2

  //printf("\e[31mpop_off()\e[0m: cpuid(): %d\n", cpuid());
  if(intr_get())
    80201064:	e78d                	bnez	a5,8020108e <pop_off+0x40>
    panic("pop_off - interruptible");
  if(c->noff < 1) {
    80201066:	5d3c                	lw	a5,120(a0)
    80201068:	02f05b63          	blez	a5,8020109e <pop_off+0x50>
    //printf("c->noff = %d\n", c->noff);
    panic("pop_off");
  }
  //printf("c->noff: %d\n", c->noff);
  //printf("c: %x\n", c);
  c->noff -= 1;
    8020106c:	37fd                	addiw	a5,a5,-1
    8020106e:	0007871b          	sext.w	a4,a5
    80201072:	dd3c                	sw	a5,120(a0)
  if(c->noff == 0 && c->intena)
    80201074:	eb09                	bnez	a4,80201086 <pop_off+0x38>
    80201076:	5d7c                	lw	a5,124(a0)
    80201078:	c799                	beqz	a5,80201086 <pop_off+0x38>
  asm volatile("csrr %0, sstatus" : "=r" (x) );
    8020107a:	100027f3          	csrr	a5,sstatus
  w_sstatus(r_sstatus() | SSTATUS_SIE);
    8020107e:	0027e793          	ori	a5,a5,2
  asm volatile("csrw sstatus, %0" : : "r" (x));
    80201082:	10079073          	csrw	sstatus,a5
    intr_on();
}
    80201086:	60a2                	ld	ra,8(sp)
    80201088:	6402                	ld	s0,0(sp)
    8020108a:	0141                	addi	sp,sp,16
    8020108c:	8082                	ret
    panic("pop_off - interruptible");
    8020108e:	00011517          	auipc	a0,0x11
    80201092:	ff250513          	addi	a0,a0,-14 # 80212080 <rodata_start+0x80>
    80201096:	00007097          	auipc	ra,0x7
    8020109a:	650080e7          	jalr	1616(ra) # 802086e6 <panic>
    panic("pop_off");
    8020109e:	00011517          	auipc	a0,0x11
    802010a2:	ffa50513          	addi	a0,a0,-6 # 80212098 <rodata_start+0x98>
    802010a6:	00007097          	auipc	ra,0x7
    802010aa:	640080e7          	jalr	1600(ra) # 802086e6 <panic>

00000000802010ae <image_init>:
#include "include/ramdisk.h"
#endif

void image_init(struct dirent* img)
{
    if(!FatFs[img->dev].valid){
    802010ae:	11454783          	lbu	a5,276(a0)
    802010b2:	6715                	lui	a4,0x5
    802010b4:	9b870713          	addi	a4,a4,-1608 # 49b8 <_entry-0x801fb648>
    802010b8:	02e78733          	mul	a4,a5,a4
    802010bc:	00854797          	auipc	a5,0x854
    802010c0:	af478793          	addi	a5,a5,-1292 # 80a54bb0 <FatFs>
    802010c4:	97ba                	add	a5,a5,a4
    802010c6:	43dc                	lw	a5,4(a5)
    802010c8:	c391                	beqz	a5,802010cc <image_init+0x1e>
    802010ca:	8082                	ret
{
    802010cc:	1141                	addi	sp,sp,-16
    802010ce:	e406                	sd	ra,8(sp)
    802010d0:	e022                	sd	s0,0(sp)
    802010d2:	0800                	addi	s0,sp,16
      panic("no support filesystem");
    802010d4:	00011517          	auipc	a0,0x11
    802010d8:	fcc50513          	addi	a0,a0,-52 # 802120a0 <rodata_start+0xa0>
    802010dc:	00007097          	auipc	ra,0x7
    802010e0:	60a080e7          	jalr	1546(ra) # 802086e6 <panic>

00000000802010e4 <image_read>:
    }
    return;
}

void image_read(struct buf *b,struct dirent* img)
{
    802010e4:	7179                	addi	sp,sp,-48
    802010e6:	f406                	sd	ra,40(sp)
    802010e8:	f022                	sd	s0,32(sp)
    802010ea:	ec26                	sd	s1,24(sp)
    802010ec:	e84a                	sd	s2,16(sp)
    802010ee:	e44e                	sd	s3,8(sp)
    802010f0:	1800                	addi	s0,sp,48
    802010f2:	892a                	mv	s2,a0
    802010f4:	84ae                	mv	s1,a1
  uint sectorno = b->sectorno;
  int off = sectorno*BSIZE;
    802010f6:	00c52983          	lw	s3,12(a0)
    802010fa:	0099999b          	slliw	s3,s3,0x9
  elock(img);
    802010fe:	852e                	mv	a0,a1
    80201100:	00003097          	auipc	ra,0x3
    80201104:	872080e7          	jalr	-1934(ra) # 80203972 <elock>
  if(eread(img,0,(uint64)(b->data),off,BSIZE)<0)panic("read image error");
    80201108:	20000713          	li	a4,512
    8020110c:	86ce                	mv	a3,s3
    8020110e:	05890613          	addi	a2,s2,88
    80201112:	4581                	li	a1,0
    80201114:	8526                	mv	a0,s1
    80201116:	00002097          	auipc	ra,0x2
    8020111a:	e7c080e7          	jalr	-388(ra) # 80202f92 <eread>
    8020111e:	00054e63          	bltz	a0,8020113a <image_read+0x56>
  eunlock(img);
    80201122:	8526                	mv	a0,s1
    80201124:	00003097          	auipc	ra,0x3
    80201128:	884080e7          	jalr	-1916(ra) # 802039a8 <eunlock>
  return;
}
    8020112c:	70a2                	ld	ra,40(sp)
    8020112e:	7402                	ld	s0,32(sp)
    80201130:	64e2                	ld	s1,24(sp)
    80201132:	6942                	ld	s2,16(sp)
    80201134:	69a2                	ld	s3,8(sp)
    80201136:	6145                	addi	sp,sp,48
    80201138:	8082                	ret
  if(eread(img,0,(uint64)(b->data),off,BSIZE)<0)panic("read image error");
    8020113a:	00011517          	auipc	a0,0x11
    8020113e:	f7e50513          	addi	a0,a0,-130 # 802120b8 <rodata_start+0xb8>
    80201142:	00007097          	auipc	ra,0x7
    80201146:	5a4080e7          	jalr	1444(ra) # 802086e6 <panic>

000000008020114a <image_write>:

void image_write(struct buf *b,struct dirent* img)
{
    8020114a:	7179                	addi	sp,sp,-48
    8020114c:	f406                	sd	ra,40(sp)
    8020114e:	f022                	sd	s0,32(sp)
    80201150:	ec26                	sd	s1,24(sp)
    80201152:	e84a                	sd	s2,16(sp)
    80201154:	e44e                	sd	s3,8(sp)
    80201156:	1800                	addi	s0,sp,48
    80201158:	892a                	mv	s2,a0
    8020115a:	84ae                	mv	s1,a1
  uint sectorno = b->sectorno;
  int off = sectorno*BSIZE;
    8020115c:	00c52983          	lw	s3,12(a0)
    80201160:	0099999b          	slliw	s3,s3,0x9
  elock(img);
    80201164:	852e                	mv	a0,a1
    80201166:	00003097          	auipc	ra,0x3
    8020116a:	80c080e7          	jalr	-2036(ra) # 80203972 <elock>
  if(ewrite(img,0,(uint64)(b->data),off,BSIZE)<0)panic("write image error");
    8020116e:	20000713          	li	a4,512
    80201172:	86ce                	mv	a3,s3
    80201174:	05890613          	addi	a2,s2,88
    80201178:	4581                	li	a1,0
    8020117a:	8526                	mv	a0,s1
    8020117c:	00002097          	auipc	ra,0x2
    80201180:	f2c080e7          	jalr	-212(ra) # 802030a8 <ewrite>
    80201184:	00054e63          	bltz	a0,802011a0 <image_write+0x56>
  eunlock(img);
    80201188:	8526                	mv	a0,s1
    8020118a:	00003097          	auipc	ra,0x3
    8020118e:	81e080e7          	jalr	-2018(ra) # 802039a8 <eunlock>
  return;
}
    80201192:	70a2                	ld	ra,40(sp)
    80201194:	7402                	ld	s0,32(sp)
    80201196:	64e2                	ld	s1,24(sp)
    80201198:	6942                	ld	s2,16(sp)
    8020119a:	69a2                	ld	s3,8(sp)
    8020119c:	6145                	addi	sp,sp,48
    8020119e:	8082                	ret
  if(ewrite(img,0,(uint64)(b->data),off,BSIZE)<0)panic("write image error");
    802011a0:	00011517          	auipc	a0,0x11
    802011a4:	f3050513          	addi	a0,a0,-208 # 802120d0 <rodata_start+0xd0>
    802011a8:	00007097          	auipc	ra,0x7
    802011ac:	53e080e7          	jalr	1342(ra) # 802086e6 <panic>

00000000802011b0 <zombiecond>:
  sched();
  release(&p->lock);
}


int zombiecond(struct proc* p,int pid){
    802011b0:	1141                	addi	sp,sp,-16
    802011b2:	e422                	sd	s0,8(sp)
    802011b4:	0800                	addi	s0,sp,16
  return (pid==-1||p->pid == pid);
    802011b6:	57fd                	li	a5,-1
    802011b8:	00f58a63          	beq	a1,a5,802011cc <zombiecond+0x1c>
    802011bc:	4128                	lw	a0,64(a0)
    802011be:	40b505b3          	sub	a1,a0,a1
    802011c2:	0015b513          	seqz	a0,a1
}
    802011c6:	6422                	ld	s0,8(sp)
    802011c8:	0141                	addi	sp,sp,16
    802011ca:	8082                	ret
  return (pid==-1||p->pid == pid);
    802011cc:	4505                	li	a0,1
    802011ce:	bfe5                	j	802011c6 <zombiecond+0x16>

00000000802011d0 <forkret>:
{
    802011d0:	1141                	addi	sp,sp,-16
    802011d2:	e406                	sd	ra,8(sp)
    802011d4:	e022                	sd	s0,0(sp)
    802011d6:	0800                	addi	s0,sp,16
  release(&myproc()->lock);
    802011d8:	0000a097          	auipc	ra,0xa
    802011dc:	274080e7          	jalr	628(ra) # 8020b44c <myproc>
    802011e0:	0521                	addi	a0,a0,8
    802011e2:	00007097          	auipc	ra,0x7
    802011e6:	1e8080e7          	jalr	488(ra) # 802083ca <release>
  usertrapret();
    802011ea:	00009097          	auipc	ra,0x9
    802011ee:	320080e7          	jalr	800(ra) # 8020a50a <usertrapret>
}
    802011f2:	60a2                	ld	ra,8(sp)
    802011f4:	6402                	ld	s0,0(sp)
    802011f6:	0141                	addi	sp,sp,16
    802011f8:	8082                	ret

00000000802011fa <freeproc>:
{
    802011fa:	1101                	addi	sp,sp,-32
    802011fc:	ec06                	sd	ra,24(sp)
    802011fe:	e822                	sd	s0,16(sp)
    80201200:	e426                	sd	s1,8(sp)
    80201202:	1000                	addi	s0,sp,32
    80201204:	84aa                	mv	s1,a0
  p->trapframe = 0;
    80201206:	06053423          	sd	zero,104(a0)
  if(p->mf)
    8020120a:	18053783          	ld	a5,384(a0)
    8020120e:	c789                	beqz	a5,80201218 <freeproc+0x1e>
    free_map_fix(p);
    80201210:	0000b097          	auipc	ra,0xb
    80201214:	3aa080e7          	jalr	938(ra) # 8020c5ba <free_map_fix>
  if(p->kstack)
    80201218:	68a8                	ld	a0,80(s1)
    8020121a:	e13d                	bnez	a0,80201280 <freeproc+0x86>
  if(p->pagetable)
    8020121c:	70bc                	ld	a5,96(s1)
    8020121e:	c791                	beqz	a5,8020122a <freeproc+0x30>
  uvmfree(p);
    80201220:	8526                	mv	a0,s1
    80201222:	00009097          	auipc	ra,0x9
    80201226:	bdc080e7          	jalr	-1060(ra) # 80209dfe <uvmfree>
  p->pagetable = 0;
    8020122a:	0604b023          	sd	zero,96(s1)
  p->vma = NULL;
    8020122e:	1604b823          	sd	zero,368(s1)
  p->robust_list = NULL;
    80201232:	1a04bc23          	sd	zero,440(s1)
  p->sz = 0;
    80201236:	0404bc23          	sd	zero,88(s1)
  p->pid = 0;
    8020123a:	0404a023          	sw	zero,64(s1)

static inline void list_del(struct list *node) {
	if(node==NULL){
	  panic("[list next]list is null");
	}
	__list_link(node->prev, node->next);
    8020123e:	1604b703          	ld	a4,352(s1)
    80201242:	1684b783          	ld	a5,360(s1)
	prev->next = next;
    80201246:	e71c                	sd	a5,8(a4)
	next->prev = prev;
    80201248:	e398                	sd	a4,0(a5)
  p->name[0] = 0;
    8020124a:	10048023          	sb	zero,256(s1)
  p->chan = 0;
    8020124e:	0204b823          	sd	zero,48(s1)
  p->killed = 0;
    80201252:	0204ac23          	sw	zero,56(s1)
  p->xstate = 0;
    80201256:	0204ae23          	sw	zero,60(s1)
  p->state = UNUSED;
    8020125a:	0204a023          	sw	zero,32(s1)
  sigaction_free(p->sig_act);
    8020125e:	1884b503          	ld	a0,392(s1)
    80201262:	00007097          	auipc	ra,0x7
    80201266:	fac080e7          	jalr	-84(ra) # 8020820e <sigaction_free>
  sigframefree(p->sig_frame);
    8020126a:	1a04b503          	ld	a0,416(s1)
    8020126e:	00007097          	auipc	ra,0x7
    80201272:	f34080e7          	jalr	-204(ra) # 802081a2 <sigframefree>
}
    80201276:	60e2                	ld	ra,24(sp)
    80201278:	6442                	ld	s0,16(sp)
    8020127a:	64a2                	ld	s1,8(sp)
    8020127c:	6105                	addi	sp,sp,32
    8020127e:	8082                	ret
    freepage((void *)p->kstack);
    80201280:	00008097          	auipc	ra,0x8
    80201284:	fa0080e7          	jalr	-96(ra) # 80209220 <_freepage>
    80201288:	bf51                	j	8020121c <freeproc+0x22>

000000008020128a <waitq_pool_init>:
waitq_pool_init(){
    8020128a:	1141                	addi	sp,sp,-16
    8020128c:	e406                	sd	ra,8(sp)
    8020128e:	e022                	sd	s0,0(sp)
    80201290:	0800                	addi	s0,sp,16
  for(int i = 0;i<WAITQ_NUM;i++){
    80201292:	00847797          	auipc	a5,0x847
    80201296:	f1678793          	addi	a5,a5,-234 # 80a481a8 <waitq_valid>
    8020129a:	00847717          	auipc	a4,0x847
    8020129e:	09e70713          	addi	a4,a4,158 # 80a48338 <waitq_pool_lk>
    waitq_valid[i] = 0;
    802012a2:	0007a023          	sw	zero,0(a5)
  for(int i = 0;i<WAITQ_NUM;i++){
    802012a6:	0791                	addi	a5,a5,4
    802012a8:	fee79de3          	bne	a5,a4,802012a2 <waitq_pool_init+0x18>
  initlock(&waitq_pool_lk,"waitq pool");
    802012ac:	00011597          	auipc	a1,0x11
    802012b0:	e3c58593          	addi	a1,a1,-452 # 802120e8 <rodata_start+0xe8>
    802012b4:	00847517          	auipc	a0,0x847
    802012b8:	08450513          	addi	a0,a0,132 # 80a48338 <waitq_pool_lk>
    802012bc:	00007097          	auipc	ra,0x7
    802012c0:	076080e7          	jalr	118(ra) # 80208332 <initlock>
}
    802012c4:	60a2                	ld	ra,8(sp)
    802012c6:	6402                	ld	s0,0(sp)
    802012c8:	0141                	addi	sp,sp,16
    802012ca:	8082                	ret

00000000802012cc <procinit>:
procinit(){
    802012cc:	7179                	addi	sp,sp,-48
    802012ce:	f406                	sd	ra,40(sp)
    802012d0:	f022                	sd	s0,32(sp)
    802012d2:	ec26                	sd	s1,24(sp)
    802012d4:	e84a                	sd	s2,16(sp)
    802012d6:	e44e                	sd	s3,8(sp)
    802012d8:	e052                	sd	s4,0(sp)
    802012da:	1800                	addi	s0,sp,48
  initlock(&pid_lock,"pid lock");
    802012dc:	00847497          	auipc	s1,0x847
    802012e0:	ecc48493          	addi	s1,s1,-308 # 80a481a8 <waitq_valid>
    802012e4:	00011597          	auipc	a1,0x11
    802012e8:	e1458593          	addi	a1,a1,-492 # 802120f8 <rodata_start+0xf8>
    802012ec:	00847517          	auipc	a0,0x847
    802012f0:	06450513          	addi	a0,a0,100 # 80a48350 <pid_lock>
    802012f4:	00007097          	auipc	ra,0x7
    802012f8:	03e080e7          	jalr	62(ra) # 80208332 <initlock>
  initproc = NULL;
    802012fc:	00854797          	auipc	a5,0x854
    80201300:	8a07b623          	sd	zero,-1876(a5) # 80a54ba8 <initproc>
  struct spinlock lk;
  struct list head;
}queue;

static inline void queue_init(queue *q,void* chan) {
	initlock(&q->lk,"queue");
    80201304:	00011597          	auipc	a1,0x11
    80201308:	1d458593          	addi	a1,a1,468 # 802124d8 <rodata_start+0x4d8>
    8020130c:	00847517          	auipc	a0,0x847
    80201310:	06450513          	addi	a0,a0,100 # 80a48370 <readyq+0x8>
    80201314:	00007097          	auipc	ra,0x7
    80201318:	01e080e7          	jalr	30(ra) # 80208332 <initlock>
	node->prev = node->next = node;
    8020131c:	00847797          	auipc	a5,0x847
    80201320:	06c78793          	addi	a5,a5,108 # 80a48388 <readyq+0x20>
    80201324:	1ef4b423          	sd	a5,488(s1)
    80201328:	1ef4b023          	sd	a5,480(s1)
	list_init(&q->head);
	q->chan = chan;
    8020132c:	1c04b023          	sd	zero,448(s1)
  waitq_pool_init();
    80201330:	00000097          	auipc	ra,0x0
    80201334:	f5a080e7          	jalr	-166(ra) # 8020128a <waitq_pool_init>
  firstuserinit = 1;
    80201338:	4785                	li	a5,1
    8020133a:	00854717          	auipc	a4,0x854
    8020133e:	84f72f23          	sw	a5,-1954(a4) # 80a54b98 <firstuserinit>
  for(struct proc* p = proc;p<proc+NPROC;p++){
    80201342:	00848497          	auipc	s1,0x848
    80201346:	31e48493          	addi	s1,s1,798 # 80a49660 <proc+0x8>
    8020134a:	00854a17          	auipc	s4,0x854
    8020134e:	856a0a13          	addi	s4,s4,-1962 # 80a54ba0 <runproc>
      initlock(&p->lock, "proc");
    80201352:	00011997          	auipc	s3,0x11
    80201356:	db698993          	addi	s3,s3,-586 # 80212108 <rodata_start+0x108>
      p->filelimit = NOFILE;
    8020135a:	0c800913          	li	s2,200
      initlock(&p->lock, "proc");
    8020135e:	85ce                	mv	a1,s3
    80201360:	8526                	mv	a0,s1
    80201362:	00007097          	auipc	ra,0x7
    80201366:	fd0080e7          	jalr	-48(ra) # 80208332 <initlock>
      p->state = UNUSED;
    8020136a:	0004ac23          	sw	zero,24(s1)
      p->parent = NULL;
    8020136e:	0204b023          	sd	zero,32(s1)
      p->killed = 0;
    80201372:	0204a823          	sw	zero,48(s1)
      p->filelimit = NOFILE;
    80201376:	0d24bc23          	sd	s2,216(s1)
      p->umask = 0;
    8020137a:	1a04ac23          	sw	zero,440(s1)
  for(struct proc* p = proc;p<proc+NPROC;p++){
    8020137e:	1d048493          	addi	s1,s1,464
    80201382:	fd449ee3          	bne	s1,s4,8020135e <procinit+0x92>
  __debug_info("procinit\n");
    80201386:	00011517          	auipc	a0,0x11
    8020138a:	d8a50513          	addi	a0,a0,-630 # 80212110 <rodata_start+0x110>
    8020138e:	00007097          	auipc	ra,0x7
    80201392:	568080e7          	jalr	1384(ra) # 802088f6 <__debug_info>
}
    80201396:	70a2                	ld	ra,40(sp)
    80201398:	7402                	ld	s0,32(sp)
    8020139a:	64e2                	ld	s1,24(sp)
    8020139c:	6942                	ld	s2,16(sp)
    8020139e:	69a2                	ld	s3,8(sp)
    802013a0:	6a02                	ld	s4,0(sp)
    802013a2:	6145                	addi	sp,sp,48
    802013a4:	8082                	ret

00000000802013a6 <findwaitq>:
findwaitq(void* chan){
    802013a6:	1101                	addi	sp,sp,-32
    802013a8:	ec06                	sd	ra,24(sp)
    802013aa:	e822                	sd	s0,16(sp)
    802013ac:	e426                	sd	s1,8(sp)
    802013ae:	e04a                	sd	s2,0(sp)
    802013b0:	1000                	addi	s0,sp,32
    802013b2:	892a                	mv	s2,a0
  acquire(&waitq_pool_lk);
    802013b4:	00847517          	auipc	a0,0x847
    802013b8:	f8450513          	addi	a0,a0,-124 # 80a48338 <waitq_pool_lk>
    802013bc:	00007097          	auipc	ra,0x7
    802013c0:	fba080e7          	jalr	-70(ra) # 80208376 <acquire>
  for(int i=0;i<WAITQ_NUM ;i++){
    802013c4:	00847797          	auipc	a5,0x847
    802013c8:	de478793          	addi	a5,a5,-540 # 80a481a8 <waitq_valid>
    802013cc:	00847717          	auipc	a4,0x847
    802013d0:	fcc70713          	addi	a4,a4,-52 # 80a48398 <waitq_pool>
    802013d4:	4481                	li	s1,0
    802013d6:	06400613          	li	a2,100
    802013da:	a039                	j	802013e8 <findwaitq+0x42>
    802013dc:	2485                	addiw	s1,s1,1
    802013de:	0791                	addi	a5,a5,4
    802013e0:	03070713          	addi	a4,a4,48
    802013e4:	02c48e63          	beq	s1,a2,80201420 <findwaitq+0x7a>
    if(waitq_valid[i]&&waitq_pool[i].chan == chan){
    802013e8:	4394                	lw	a3,0(a5)
    802013ea:	daed                	beqz	a3,802013dc <findwaitq+0x36>
    802013ec:	6314                	ld	a3,0(a4)
    802013ee:	ff2697e3          	bne	a3,s2,802013dc <findwaitq+0x36>
      release(&waitq_pool_lk);
    802013f2:	00847517          	auipc	a0,0x847
    802013f6:	f4650513          	addi	a0,a0,-186 # 80a48338 <waitq_pool_lk>
    802013fa:	00007097          	auipc	ra,0x7
    802013fe:	fd0080e7          	jalr	-48(ra) # 802083ca <release>
      return waitq_pool+i;
    80201402:	00149513          	slli	a0,s1,0x1
    80201406:	9526                	add	a0,a0,s1
    80201408:	0512                	slli	a0,a0,0x4
    8020140a:	00847797          	auipc	a5,0x847
    8020140e:	f8e78793          	addi	a5,a5,-114 # 80a48398 <waitq_pool>
    80201412:	953e                	add	a0,a0,a5
}
    80201414:	60e2                	ld	ra,24(sp)
    80201416:	6442                	ld	s0,16(sp)
    80201418:	64a2                	ld	s1,8(sp)
    8020141a:	6902                	ld	s2,0(sp)
    8020141c:	6105                	addi	sp,sp,32
    8020141e:	8082                	ret
  release(&waitq_pool_lk);
    80201420:	00847517          	auipc	a0,0x847
    80201424:	f1850513          	addi	a0,a0,-232 # 80a48338 <waitq_pool_lk>
    80201428:	00007097          	auipc	ra,0x7
    8020142c:	fa2080e7          	jalr	-94(ra) # 802083ca <release>
  return NULL;
    80201430:	4501                	li	a0,0
    80201432:	b7cd                	j	80201414 <findwaitq+0x6e>

0000000080201434 <allocwaitq>:
allocwaitq(void* chan){
    80201434:	1101                	addi	sp,sp,-32
    80201436:	ec06                	sd	ra,24(sp)
    80201438:	e822                	sd	s0,16(sp)
    8020143a:	e426                	sd	s1,8(sp)
    8020143c:	e04a                	sd	s2,0(sp)
    8020143e:	1000                	addi	s0,sp,32
    80201440:	892a                	mv	s2,a0
  acquire(&waitq_pool_lk);
    80201442:	00847517          	auipc	a0,0x847
    80201446:	ef650513          	addi	a0,a0,-266 # 80a48338 <waitq_pool_lk>
    8020144a:	00007097          	auipc	ra,0x7
    8020144e:	f2c080e7          	jalr	-212(ra) # 80208376 <acquire>
  for(int i=0;i<WAITQ_NUM ;i++){
    80201452:	00847717          	auipc	a4,0x847
    80201456:	d5670713          	addi	a4,a4,-682 # 80a481a8 <waitq_valid>
    8020145a:	4781                	li	a5,0
    8020145c:	06400613          	li	a2,100
    if(!waitq_valid[i]){
    80201460:	4314                	lw	a3,0(a4)
    80201462:	ce99                	beqz	a3,80201480 <allocwaitq+0x4c>
  for(int i=0;i<WAITQ_NUM ;i++){
    80201464:	2785                	addiw	a5,a5,1
    80201466:	0711                	addi	a4,a4,4
    80201468:	fec79ce3          	bne	a5,a2,80201460 <allocwaitq+0x2c>
  release(&waitq_pool_lk);
    8020146c:	00847517          	auipc	a0,0x847
    80201470:	ecc50513          	addi	a0,a0,-308 # 80a48338 <waitq_pool_lk>
    80201474:	00007097          	auipc	ra,0x7
    80201478:	f56080e7          	jalr	-170(ra) # 802083ca <release>
  return NULL;
    8020147c:	4481                	li	s1,0
    8020147e:	a899                	j	802014d4 <allocwaitq+0xa0>
      waitq_valid[i] = 1;
    80201480:	00279693          	slli	a3,a5,0x2
    80201484:	00847717          	auipc	a4,0x847
    80201488:	d2470713          	addi	a4,a4,-732 # 80a481a8 <waitq_valid>
    8020148c:	9736                	add	a4,a4,a3
    8020148e:	4685                	li	a3,1
    80201490:	c314                	sw	a3,0(a4)
      queue_init(waitq_pool+i,chan);
    80201492:	00179493          	slli	s1,a5,0x1
    80201496:	94be                	add	s1,s1,a5
    80201498:	0492                	slli	s1,s1,0x4
    8020149a:	00847797          	auipc	a5,0x847
    8020149e:	efe78793          	addi	a5,a5,-258 # 80a48398 <waitq_pool>
    802014a2:	94be                	add	s1,s1,a5
	initlock(&q->lk,"queue");
    802014a4:	00011597          	auipc	a1,0x11
    802014a8:	03458593          	addi	a1,a1,52 # 802124d8 <rodata_start+0x4d8>
    802014ac:	00848513          	addi	a0,s1,8
    802014b0:	00007097          	auipc	ra,0x7
    802014b4:	e82080e7          	jalr	-382(ra) # 80208332 <initlock>
	list_init(&q->head);
    802014b8:	02048793          	addi	a5,s1,32
    802014bc:	f49c                	sd	a5,40(s1)
    802014be:	f09c                	sd	a5,32(s1)
	q->chan = chan;
    802014c0:	0124b023          	sd	s2,0(s1)
      release(&waitq_pool_lk);
    802014c4:	00847517          	auipc	a0,0x847
    802014c8:	e7450513          	addi	a0,a0,-396 # 80a48338 <waitq_pool_lk>
    802014cc:	00007097          	auipc	ra,0x7
    802014d0:	efe080e7          	jalr	-258(ra) # 802083ca <release>
}
    802014d4:	8526                	mv	a0,s1
    802014d6:	60e2                	ld	ra,24(sp)
    802014d8:	6442                	ld	s0,16(sp)
    802014da:	64a2                	ld	s1,8(sp)
    802014dc:	6902                	ld	s2,0(sp)
    802014de:	6105                	addi	sp,sp,32
    802014e0:	8082                	ret

00000000802014e2 <delwaitq>:
delwaitq(queue* q){
    802014e2:	1101                	addi	sp,sp,-32
    802014e4:	ec06                	sd	ra,24(sp)
    802014e6:	e822                	sd	s0,16(sp)
    802014e8:	e426                	sd	s1,8(sp)
    802014ea:	e04a                	sd	s2,0(sp)
    802014ec:	1000                	addi	s0,sp,32
    802014ee:	84aa                	mv	s1,a0
  acquire(&waitq_pool_lk);
    802014f0:	00847917          	auipc	s2,0x847
    802014f4:	e4890913          	addi	s2,s2,-440 # 80a48338 <waitq_pool_lk>
    802014f8:	854a                	mv	a0,s2
    802014fa:	00007097          	auipc	ra,0x7
    802014fe:	e7c080e7          	jalr	-388(ra) # 80208376 <acquire>
  int i = q - waitq_pool;
    80201502:	00847517          	auipc	a0,0x847
    80201506:	e9650513          	addi	a0,a0,-362 # 80a48398 <waitq_pool>
    8020150a:	8c89                	sub	s1,s1,a0
    8020150c:	8491                	srai	s1,s1,0x4
  waitq_valid[i] = 0;
    8020150e:	00014797          	auipc	a5,0x14
    80201512:	de27b783          	ld	a5,-542(a5) # 802152f0 <erodata>
    80201516:	02f484bb          	mulw	s1,s1,a5
    8020151a:	048a                	slli	s1,s1,0x2
    8020151c:	00847797          	auipc	a5,0x847
    80201520:	c8c78793          	addi	a5,a5,-884 # 80a481a8 <waitq_valid>
    80201524:	94be                	add	s1,s1,a5
    80201526:	0004a023          	sw	zero,0(s1)
  release(&waitq_pool_lk);
    8020152a:	854a                	mv	a0,s2
    8020152c:	00007097          	auipc	ra,0x7
    80201530:	e9e080e7          	jalr	-354(ra) # 802083ca <release>
}
    80201534:	60e2                	ld	ra,24(sp)
    80201536:	6442                	ld	s0,16(sp)
    80201538:	64a2                	ld	s1,8(sp)
    8020153a:	6902                	ld	s2,0(sp)
    8020153c:	6105                	addi	sp,sp,32
    8020153e:	8082                	ret

0000000080201540 <readyq_push>:
readyq_push(struct proc* p){
    80201540:	7179                	addi	sp,sp,-48
    80201542:	f406                	sd	ra,40(sp)
    80201544:	f022                	sd	s0,32(sp)
    80201546:	ec26                	sd	s1,24(sp)
    80201548:	e84a                	sd	s2,16(sp)
    8020154a:	e44e                	sd	s3,8(sp)
    8020154c:	1800                	addi	s0,sp,48
    8020154e:	84aa                	mv	s1,a0
}

static inline void qlock(queue *q){
	acquire(&q->lk);
    80201550:	00847997          	auipc	s3,0x847
    80201554:	c5898993          	addi	s3,s3,-936 # 80a481a8 <waitq_valid>
    80201558:	00847917          	auipc	s2,0x847
    8020155c:	e1890913          	addi	s2,s2,-488 # 80a48370 <readyq+0x8>
    80201560:	854a                	mv	a0,s2
    80201562:	00007097          	auipc	ra,0x7
    80201566:	e14080e7          	jalr	-492(ra) # 80208376 <acquire>
	return list_empty(&q->head);
}

static inline void queue_push(queue* q,struct proc* p){
	qlock(q);
	list_add_before(&q->head,&p->dlist);
    8020156a:	14048713          	addi	a4,s1,320
	__list_insert(node, beforeme->prev, beforeme);
    8020156e:	1e09b783          	ld	a5,480(s3)
	prev->next = next->prev = node;
    80201572:	1ee9b023          	sd	a4,480(s3)
    80201576:	e798                	sd	a4,8(a5)
	node->next = next;
    80201578:	00847717          	auipc	a4,0x847
    8020157c:	e1070713          	addi	a4,a4,-496 # 80a48388 <readyq+0x20>
    80201580:	14e4b423          	sd	a4,328(s1)
	node->prev = prev;
    80201584:	14f4b023          	sd	a5,320(s1)
	p->q = (uint64)q;
    80201588:	00847797          	auipc	a5,0x847
    8020158c:	de078793          	addi	a5,a5,-544 # 80a48368 <readyq>
    80201590:	16f4bc23          	sd	a5,376(s1)
	release(&q->lk);
    80201594:	854a                	mv	a0,s2
    80201596:	00007097          	auipc	ra,0x7
    8020159a:	e34080e7          	jalr	-460(ra) # 802083ca <release>
}
    8020159e:	70a2                	ld	ra,40(sp)
    802015a0:	7402                	ld	s0,32(sp)
    802015a2:	64e2                	ld	s1,24(sp)
    802015a4:	6942                	ld	s2,16(sp)
    802015a6:	69a2                	ld	s3,8(sp)
    802015a8:	6145                	addi	sp,sp,48
    802015aa:	8082                	ret

00000000802015ac <readyq_pop>:
readyq_pop(){
    802015ac:	1101                	addi	sp,sp,-32
    802015ae:	ec06                	sd	ra,24(sp)
    802015b0:	e822                	sd	s0,16(sp)
    802015b2:	e426                	sd	s1,8(sp)
    802015b4:	1000                	addi	s0,sp,32
	acquire(&q->lk);
    802015b6:	00847517          	auipc	a0,0x847
    802015ba:	dba50513          	addi	a0,a0,-582 # 80a48370 <readyq+0x8>
    802015be:	00007097          	auipc	ra,0x7
    802015c2:	db8080e7          	jalr	-584(ra) # 80208376 <acquire>
	return head->next == head;
    802015c6:	00847797          	auipc	a5,0x847
    802015ca:	dca7b783          	ld	a5,-566(a5) # 80a48390 <readyq+0x28>
}

static inline struct proc* queue_pop(queue* q){
	struct proc* p = NULL;
	qlock(q);
	if(!queue_empty(q)){
    802015ce:	00847717          	auipc	a4,0x847
    802015d2:	dba70713          	addi	a4,a4,-582 # 80a48388 <readyq+0x20>
    802015d6:	04e78563          	beq	a5,a4,80201620 <readyq_pop+0x74>
	if(node==NULL){
    802015da:	cb9d                	beqz	a5,80201610 <readyq_pop+0x64>
	__list_link(node->prev, node->next);
    802015dc:	6394                	ld	a3,0(a5)
    802015de:	6798                	ld	a4,8(a5)
	prev->next = next;
    802015e0:	e698                	sd	a4,8(a3)
	next->prev = prev;
    802015e2:	e314                	sd	a3,0(a4)
		struct list* l = list_next(&q->head);
		list_del(l);
		p = dlist_entry(l, struct proc, dlist);
    802015e4:	ec078493          	addi	s1,a5,-320
		p->q = 0;
    802015e8:	0207bc23          	sd	zero,56(a5)
		p->dlist.prev = NULL;
    802015ec:	0007b023          	sd	zero,0(a5)
		p->dlist.next = NULL;
    802015f0:	0007b423          	sd	zero,8(a5)
	release(&q->lk);
    802015f4:	00847517          	auipc	a0,0x847
    802015f8:	d7c50513          	addi	a0,a0,-644 # 80a48370 <readyq+0x8>
    802015fc:	00007097          	auipc	ra,0x7
    80201600:	dce080e7          	jalr	-562(ra) # 802083ca <release>
}
    80201604:	8526                	mv	a0,s1
    80201606:	60e2                	ld	ra,24(sp)
    80201608:	6442                	ld	s0,16(sp)
    8020160a:	64a2                	ld	s1,8(sp)
    8020160c:	6105                	addi	sp,sp,32
    8020160e:	8082                	ret
	  panic("[list next]list is null");
    80201610:	00011517          	auipc	a0,0x11
    80201614:	b1050513          	addi	a0,a0,-1264 # 80212120 <rodata_start+0x120>
    80201618:	00007097          	auipc	ra,0x7
    8020161c:	0ce080e7          	jalr	206(ra) # 802086e6 <panic>
	struct proc* p = NULL;
    80201620:	4481                	li	s1,0
    80201622:	bfc9                	j	802015f4 <readyq_pop+0x48>

0000000080201624 <waitq_push>:
waitq_push(queue *q,struct proc* p){
    80201624:	7179                	addi	sp,sp,-48
    80201626:	f406                	sd	ra,40(sp)
    80201628:	f022                	sd	s0,32(sp)
    8020162a:	ec26                	sd	s1,24(sp)
    8020162c:	e84a                	sd	s2,16(sp)
    8020162e:	e44e                	sd	s3,8(sp)
    80201630:	1800                	addi	s0,sp,48
    80201632:	84aa                	mv	s1,a0
    80201634:	892e                	mv	s2,a1
	acquire(&q->lk);
    80201636:	00850993          	addi	s3,a0,8
    8020163a:	854e                	mv	a0,s3
    8020163c:	00007097          	auipc	ra,0x7
    80201640:	d3a080e7          	jalr	-710(ra) # 80208376 <acquire>
	list_add_before(&q->head,&p->dlist);
    80201644:	14090713          	addi	a4,s2,320
	__list_insert(node, beforeme->prev, beforeme);
    80201648:	709c                	ld	a5,32(s1)
	prev->next = next->prev = node;
    8020164a:	f098                	sd	a4,32(s1)
    8020164c:	e798                	sd	a4,8(a5)
    8020164e:	02048713          	addi	a4,s1,32
	node->next = next;
    80201652:	14e93423          	sd	a4,328(s2)
	node->prev = prev;
    80201656:	14f93023          	sd	a5,320(s2)
	p->q = (uint64)q;
    8020165a:	16993c23          	sd	s1,376(s2)
	release(&q->lk);
    8020165e:	854e                	mv	a0,s3
    80201660:	00007097          	auipc	ra,0x7
    80201664:	d6a080e7          	jalr	-662(ra) # 802083ca <release>
}
    80201668:	70a2                	ld	ra,40(sp)
    8020166a:	7402                	ld	s0,32(sp)
    8020166c:	64e2                	ld	s1,24(sp)
    8020166e:	6942                	ld	s2,16(sp)
    80201670:	69a2                	ld	s3,8(sp)
    80201672:	6145                	addi	sp,sp,48
    80201674:	8082                	ret

0000000080201676 <waitq_pop>:
waitq_pop(queue *q){
    80201676:	1101                	addi	sp,sp,-32
    80201678:	ec06                	sd	ra,24(sp)
    8020167a:	e822                	sd	s0,16(sp)
    8020167c:	e426                	sd	s1,8(sp)
    8020167e:	e04a                	sd	s2,0(sp)
    80201680:	1000                	addi	s0,sp,32
    80201682:	84aa                	mv	s1,a0
	acquire(&q->lk);
    80201684:	00850913          	addi	s2,a0,8
    80201688:	854a                	mv	a0,s2
    8020168a:	00007097          	auipc	ra,0x7
    8020168e:	cec080e7          	jalr	-788(ra) # 80208376 <acquire>
	return head->next == head;
    80201692:	749c                	ld	a5,40(s1)
	return list_empty(&q->head);
    80201694:	02048493          	addi	s1,s1,32
	if(!queue_empty(q)){
    80201698:	04978363          	beq	a5,s1,802016de <waitq_pop+0x68>
	if(node==NULL){
    8020169c:	cb8d                	beqz	a5,802016ce <waitq_pop+0x58>
	__list_link(node->prev, node->next);
    8020169e:	6394                	ld	a3,0(a5)
    802016a0:	6798                	ld	a4,8(a5)
	prev->next = next;
    802016a2:	e698                	sd	a4,8(a3)
	next->prev = prev;
    802016a4:	e314                	sd	a3,0(a4)
		p = dlist_entry(l, struct proc, dlist);
    802016a6:	ec078493          	addi	s1,a5,-320
		p->q = 0;
    802016aa:	0207bc23          	sd	zero,56(a5)
		p->dlist.prev = NULL;
    802016ae:	0007b023          	sd	zero,0(a5)
		p->dlist.next = NULL;
    802016b2:	0007b423          	sd	zero,8(a5)
	release(&q->lk);
    802016b6:	854a                	mv	a0,s2
    802016b8:	00007097          	auipc	ra,0x7
    802016bc:	d12080e7          	jalr	-750(ra) # 802083ca <release>
}
    802016c0:	8526                	mv	a0,s1
    802016c2:	60e2                	ld	ra,24(sp)
    802016c4:	6442                	ld	s0,16(sp)
    802016c6:	64a2                	ld	s1,8(sp)
    802016c8:	6902                	ld	s2,0(sp)
    802016ca:	6105                	addi	sp,sp,32
    802016cc:	8082                	ret
	  panic("[list next]list is null");
    802016ce:	00011517          	auipc	a0,0x11
    802016d2:	a5250513          	addi	a0,a0,-1454 # 80212120 <rodata_start+0x120>
    802016d6:	00007097          	auipc	ra,0x7
    802016da:	010080e7          	jalr	16(ra) # 802086e6 <panic>
	struct proc* p = NULL;
    802016de:	4481                	li	s1,0
    802016e0:	bfd9                	j	802016b6 <waitq_pop+0x40>

00000000802016e2 <scheduler>:
void scheduler(){
    802016e2:	715d                	addi	sp,sp,-80
    802016e4:	e486                	sd	ra,72(sp)
    802016e6:	e0a2                	sd	s0,64(sp)
    802016e8:	fc26                	sd	s1,56(sp)
    802016ea:	f84a                	sd	s2,48(sp)
    802016ec:	f44e                	sd	s3,40(sp)
    802016ee:	f052                	sd	s4,32(sp)
    802016f0:	ec56                	sd	s5,24(sp)
    802016f2:	e85a                	sd	s6,16(sp)
    802016f4:	e45e                	sd	s7,8(sp)
    802016f6:	e062                	sd	s8,0(sp)
    802016f8:	0880                	addi	s0,sp,80
  struct cpu *c = mycpu();
    802016fa:	0000a097          	auipc	ra,0xa
    802016fe:	d36080e7          	jalr	-714(ra) # 8020b430 <mycpu>
    80201702:	8a2a                	mv	s4,a0
  c->proc = 0;
    80201704:	00053023          	sd	zero,0(a0)
      if(p->state == RUNNABLE) {
    80201708:	4989                	li	s3,2
        p->state = RUNNING;
    8020170a:	4c0d                	li	s8,3
        w_satp(MAKE_SATP(p->pagetable));
    8020170c:	5afd                	li	s5,-1
    8020170e:	1afe                	slli	s5,s5,0x3f
        swtch(&c->context, &p->context);
    80201710:	00850b93          	addi	s7,a0,8
        w_satp(MAKE_SATP(kernel_pagetable));
    80201714:	0086bb17          	auipc	s6,0x86b
    80201718:	8e4b0b13          	addi	s6,s6,-1820 # 80a6bff8 <kernel_pagetable>
    8020171c:	a0a1                	j	80201764 <scheduler+0x82>
        p->state = RUNNING;
    8020171e:	0384a023          	sw	s8,32(s1)
        c->proc = p;
    80201722:	009a3023          	sd	s1,0(s4)
        w_satp(MAKE_SATP(p->pagetable));
    80201726:	70bc                	ld	a5,96(s1)
    80201728:	83b1                	srli	a5,a5,0xc
    8020172a:	0157e7b3          	or	a5,a5,s5
  asm volatile("csrw satp, %0" : : "r" (x));
    8020172e:	18079073          	csrw	satp,a5
static inline void
sfence_vma()
{
  // the zero, zero means flush all TLB entries.
  // asm volatile("sfence.vma zero, zero");
  asm volatile("sfence.vma");
    80201732:	12000073          	sfence.vma
        swtch(&c->context, &p->context);
    80201736:	07048593          	addi	a1,s1,112
    8020173a:	855e                	mv	a0,s7
    8020173c:	00006097          	auipc	ra,0x6
    80201740:	650080e7          	jalr	1616(ra) # 80207d8c <swtch>
        w_satp(MAKE_SATP(kernel_pagetable));
    80201744:	000b3783          	ld	a5,0(s6)
    80201748:	83b1                	srli	a5,a5,0xc
    8020174a:	0157e7b3          	or	a5,a5,s5
  asm volatile("csrw satp, %0" : : "r" (x));
    8020174e:	18079073          	csrw	satp,a5
  asm volatile("sfence.vma");
    80201752:	12000073          	sfence.vma
        c->proc = 0;
    80201756:	000a3023          	sd	zero,0(s4)
      release(&p->lock);
    8020175a:	854a                	mv	a0,s2
    8020175c:	00007097          	auipc	ra,0x7
    80201760:	c6e080e7          	jalr	-914(ra) # 802083ca <release>
    struct proc* p = readyq_pop();  //...
    80201764:	00000097          	auipc	ra,0x0
    80201768:	e48080e7          	jalr	-440(ra) # 802015ac <readyq_pop>
    8020176c:	84aa                	mv	s1,a0
    if(p){
    8020176e:	cd01                	beqz	a0,80201786 <scheduler+0xa4>
      acquire(&p->lock);
    80201770:	00850913          	addi	s2,a0,8
    80201774:	854a                	mv	a0,s2
    80201776:	00007097          	auipc	ra,0x7
    8020177a:	c00080e7          	jalr	-1024(ra) # 80208376 <acquire>
      if(p->state == RUNNABLE) {
    8020177e:	509c                	lw	a5,32(s1)
    80201780:	fd379de3          	bne	a5,s3,8020175a <scheduler+0x78>
    80201784:	bf69                	j	8020171e <scheduler+0x3c>
  asm volatile("csrr %0, sstatus" : "=r" (x) );
    80201786:	100027f3          	csrr	a5,sstatus
  w_sstatus(r_sstatus() | SSTATUS_SIE);
    8020178a:	0027e793          	ori	a5,a5,2
  asm volatile("csrw sstatus, %0" : : "r" (x));
    8020178e:	10079073          	csrw	sstatus,a5
      asm volatile("wfi");
    80201792:	10500073          	wfi
    80201796:	b7f9                	j	80201764 <scheduler+0x82>

0000000080201798 <allocpid>:
allocpid() {
    80201798:	1101                	addi	sp,sp,-32
    8020179a:	ec06                	sd	ra,24(sp)
    8020179c:	e822                	sd	s0,16(sp)
    8020179e:	e426                	sd	s1,8(sp)
    802017a0:	e04a                	sd	s2,0(sp)
    802017a2:	1000                	addi	s0,sp,32
  acquire(&pid_lock);
    802017a4:	00847917          	auipc	s2,0x847
    802017a8:	bac90913          	addi	s2,s2,-1108 # 80a48350 <pid_lock>
    802017ac:	854a                	mv	a0,s2
    802017ae:	00007097          	auipc	ra,0x7
    802017b2:	bc8080e7          	jalr	-1080(ra) # 80208376 <acquire>
  pid = nextpid;
    802017b6:	00815797          	auipc	a5,0x815
    802017ba:	87a78793          	addi	a5,a5,-1926 # 80a16030 <nextpid>
    802017be:	4384                	lw	s1,0(a5)
  nextpid = nextpid + 1;
    802017c0:	0014871b          	addiw	a4,s1,1
    802017c4:	c398                	sw	a4,0(a5)
  release(&pid_lock);
    802017c6:	854a                	mv	a0,s2
    802017c8:	00007097          	auipc	ra,0x7
    802017cc:	c02080e7          	jalr	-1022(ra) # 802083ca <release>
}
    802017d0:	8526                	mv	a0,s1
    802017d2:	60e2                	ld	ra,24(sp)
    802017d4:	6442                	ld	s0,16(sp)
    802017d6:	64a2                	ld	s1,8(sp)
    802017d8:	6902                	ld	s2,0(sp)
    802017da:	6105                	addi	sp,sp,32
    802017dc:	8082                	ret

00000000802017de <findproc>:
{
    802017de:	1141                	addi	sp,sp,-16
    802017e0:	e422                	sd	s0,8(sp)
    802017e2:	0800                	addi	s0,sp,16
    802017e4:	872a                	mv	a4,a0
  for(struct proc* p = proc;p!=proc+NPROC;p++){
    802017e6:	00848517          	auipc	a0,0x848
    802017ea:	e7250513          	addi	a0,a0,-398 # 80a49658 <proc>
    802017ee:	00853697          	auipc	a3,0x853
    802017f2:	3aa68693          	addi	a3,a3,938 # 80a54b98 <firstuserinit>
    802017f6:	a029                	j	80201800 <findproc+0x22>
    802017f8:	1d050513          	addi	a0,a0,464
    802017fc:	00d50a63          	beq	a0,a3,80201810 <findproc+0x32>
    if(p->pid == pid&& p->state !=UNUSED){
    80201800:	413c                	lw	a5,64(a0)
    80201802:	fee79be3          	bne	a5,a4,802017f8 <findproc+0x1a>
    80201806:	511c                	lw	a5,32(a0)
    80201808:	dbe5                	beqz	a5,802017f8 <findproc+0x1a>
}
    8020180a:	6422                	ld	s0,8(sp)
    8020180c:	0141                	addi	sp,sp,16
    8020180e:	8082                	ret
  return NULL;
    80201810:	4501                	li	a0,0
    80201812:	bfe5                	j	8020180a <findproc+0x2c>

0000000080201814 <proc_pagetable>:
{
    80201814:	7139                	addi	sp,sp,-64
    80201816:	fc06                	sd	ra,56(sp)
    80201818:	f822                	sd	s0,48(sp)
    8020181a:	f426                	sd	s1,40(sp)
    8020181c:	f04a                	sd	s2,32(sp)
    8020181e:	ec4e                	sd	s3,24(sp)
    80201820:	e852                	sd	s4,16(sp)
    80201822:	e456                	sd	s5,8(sp)
    80201824:	0080                	addi	s0,sp,64
    80201826:	892a                	mv	s2,a0
    80201828:	89ae                	mv	s3,a1
    8020182a:	8ab2                	mv	s5,a2
  pagetable = kvmcreate();
    8020182c:	00008097          	auipc	ra,0x8
    80201830:	588080e7          	jalr	1416(ra) # 80209db4 <kvmcreate>
    80201834:	8a2a                	mv	s4,a0
  if(pagetable == 0)
    80201836:	cd15                	beqz	a0,80201872 <proc_pagetable+0x5e>
  p->pagetable = pagetable;
    80201838:	06a93023          	sd	a0,96(s2)
  if(pp == NULL)
    8020183c:	02098463          	beqz	s3,80201864 <proc_pagetable+0x50>
    if((nvma = vma_copy(p, pp->vma)) == NULL)
    80201840:	1709b583          	ld	a1,368(s3)
    80201844:	854a                	mv	a0,s2
    80201846:	0000a097          	auipc	ra,0xa
    8020184a:	44a080e7          	jalr	1098(ra) # 8020bc90 <vma_copy>
    8020184e:	84aa                	mv	s1,a0
    80201850:	c521                	beqz	a0,80201898 <proc_pagetable+0x84>
    nvma = nvma->next;
    80201852:	6124                	ld	s1,64(a0)
    if(thread_create)
    80201854:	040a9b63          	bnez	s5,802018aa <proc_pagetable+0x96>
      while(nvma != p->vma)
    80201858:	17093783          	ld	a5,368(s2)
        if(nvma->type != TRAP && vma_deep_mapping(pp->pagetable, p->pagetable, nvma) < 0)
    8020185c:	4aa1                	li	s5,8
      while(nvma != p->vma)
    8020185e:	0af49a63          	bne	s1,a5,80201912 <proc_pagetable+0xfe>
    80201862:	a801                	j	80201872 <proc_pagetable+0x5e>
    if(vma_list_init(p) == NULL)
    80201864:	854a                	mv	a0,s2
    80201866:	0000a097          	auipc	ra,0xa
    8020186a:	268080e7          	jalr	616(ra) # 8020bace <vma_list_init>
    8020186e:	84aa                	mv	s1,a0
    80201870:	c919                	beqz	a0,80201886 <proc_pagetable+0x72>
}
    80201872:	8552                	mv	a0,s4
    80201874:	70e2                	ld	ra,56(sp)
    80201876:	7442                	ld	s0,48(sp)
    80201878:	74a2                	ld	s1,40(sp)
    8020187a:	7902                	ld	s2,32(sp)
    8020187c:	69e2                	ld	s3,24(sp)
    8020187e:	6a42                	ld	s4,16(sp)
    80201880:	6aa2                	ld	s5,8(sp)
    80201882:	6121                	addi	sp,sp,64
    80201884:	8082                	ret
      freewalk(pagetable);
    80201886:	8552                	mv	a0,s4
    80201888:	00008097          	auipc	ra,0x8
    8020188c:	48a080e7          	jalr	1162(ra) # 80209d12 <freewalk>
      p->pagetable = NULL;
    80201890:	06093023          	sd	zero,96(s2)
      return NULL;
    80201894:	8a26                	mv	s4,s1
    80201896:	bff1                	j	80201872 <proc_pagetable+0x5e>
      freepage(pagetable);
    80201898:	8552                	mv	a0,s4
    8020189a:	00008097          	auipc	ra,0x8
    8020189e:	986080e7          	jalr	-1658(ra) # 80209220 <_freepage>
      p->pagetable = NULL;
    802018a2:	06093023          	sd	zero,96(s2)
      return NULL;
    802018a6:	8a26                	mv	s4,s1
    802018a8:	b7e9                	j	80201872 <proc_pagetable+0x5e>
      while(nvma != p->vma)
    802018aa:	17093783          	ld	a5,368(s2)
    802018ae:	fcf482e3          	beq	s1,a5,80201872 <proc_pagetable+0x5e>
        if(nvma->type != TRAP && vma_shallow_mapping(pp->pagetable, p->pagetable, nvma) < 0)
    802018b2:	4aa1                	li	s5,8
    802018b4:	a031                	j	802018c0 <proc_pagetable+0xac>
        nvma = nvma->next;
    802018b6:	60a4                	ld	s1,64(s1)
      while(nvma != p->vma)
    802018b8:	17093783          	ld	a5,368(s2)
    802018bc:	fa978be3          	beq	a5,s1,80201872 <proc_pagetable+0x5e>
        if(nvma->type != TRAP && vma_shallow_mapping(pp->pagetable, p->pagetable, nvma) < 0)
    802018c0:	409c                	lw	a5,0(s1)
    802018c2:	ff578ae3          	beq	a5,s5,802018b6 <proc_pagetable+0xa2>
    802018c6:	8626                	mv	a2,s1
    802018c8:	06093583          	ld	a1,96(s2)
    802018cc:	0609b503          	ld	a0,96(s3)
    802018d0:	0000a097          	auipc	ra,0xa
    802018d4:	5da080e7          	jalr	1498(ra) # 8020beaa <vma_shallow_mapping>
    802018d8:	fc055fe3          	bgez	a0,802018b6 <proc_pagetable+0xa2>
          __debug_warn("[proc_pagetable] vma shallow mapping fail\n");
    802018dc:	00011517          	auipc	a0,0x11
    802018e0:	85c50513          	addi	a0,a0,-1956 # 80212138 <rodata_start+0x138>
    802018e4:	00007097          	auipc	ra,0x7
    802018e8:	1d8080e7          	jalr	472(ra) # 80208abc <__debug_warn>
          free_vma_list(p);
    802018ec:	854a                	mv	a0,s2
    802018ee:	0000a097          	auipc	ra,0xa
    802018f2:	12a080e7          	jalr	298(ra) # 8020ba18 <free_vma_list>
          freepage(pagetable);
    802018f6:	8552                	mv	a0,s4
    802018f8:	00008097          	auipc	ra,0x8
    802018fc:	928080e7          	jalr	-1752(ra) # 80209220 <_freepage>
          p->pagetable = NULL;
    80201900:	06093023          	sd	zero,96(s2)
          return NULL;
    80201904:	4a01                	li	s4,0
    80201906:	b7b5                	j	80201872 <proc_pagetable+0x5e>
        nvma = nvma->next;
    80201908:	60a4                	ld	s1,64(s1)
      while(nvma != p->vma)
    8020190a:	17093783          	ld	a5,368(s2)
    8020190e:	f69782e3          	beq	a5,s1,80201872 <proc_pagetable+0x5e>
        if(nvma->type != TRAP && vma_deep_mapping(pp->pagetable, p->pagetable, nvma) < 0)
    80201912:	409c                	lw	a5,0(s1)
    80201914:	ff578ae3          	beq	a5,s5,80201908 <proc_pagetable+0xf4>
    80201918:	8626                	mv	a2,s1
    8020191a:	06093583          	ld	a1,96(s2)
    8020191e:	0609b503          	ld	a0,96(s3)
    80201922:	0000a097          	auipc	ra,0xa
    80201926:	47e080e7          	jalr	1150(ra) # 8020bda0 <vma_deep_mapping>
    8020192a:	fc055fe3          	bgez	a0,80201908 <proc_pagetable+0xf4>
          __debug_warn("[proc_pagetable] vma deep mapping fail\n");
    8020192e:	00011517          	auipc	a0,0x11
    80201932:	83a50513          	addi	a0,a0,-1990 # 80212168 <rodata_start+0x168>
    80201936:	00007097          	auipc	ra,0x7
    8020193a:	186080e7          	jalr	390(ra) # 80208abc <__debug_warn>
          free_vma_list(p);
    8020193e:	854a                	mv	a0,s2
    80201940:	0000a097          	auipc	ra,0xa
    80201944:	0d8080e7          	jalr	216(ra) # 8020ba18 <free_vma_list>
          freepage(pagetable);
    80201948:	8552                	mv	a0,s4
    8020194a:	00008097          	auipc	ra,0x8
    8020194e:	8d6080e7          	jalr	-1834(ra) # 80209220 <_freepage>
          p->pagetable = NULL;
    80201952:	06093023          	sd	zero,96(s2)
          return NULL;
    80201956:	4a01                	li	s4,0
    80201958:	bf29                	j	80201872 <proc_pagetable+0x5e>

000000008020195a <allocproc>:
{
    8020195a:	7139                	addi	sp,sp,-64
    8020195c:	fc06                	sd	ra,56(sp)
    8020195e:	f822                	sd	s0,48(sp)
    80201960:	f426                	sd	s1,40(sp)
    80201962:	f04a                	sd	s2,32(sp)
    80201964:	ec4e                	sd	s3,24(sp)
    80201966:	e852                	sd	s4,16(sp)
    80201968:	e456                	sd	s5,8(sp)
    8020196a:	0080                	addi	s0,sp,64
    8020196c:	8aaa                	mv	s5,a0
    8020196e:	8a2e                	mv	s4,a1
  for(p = proc; p < &proc[NPROC]; p++) {
    80201970:	00848497          	auipc	s1,0x848
    80201974:	ce848493          	addi	s1,s1,-792 # 80a49658 <proc>
    80201978:	00853997          	auipc	s3,0x853
    8020197c:	22098993          	addi	s3,s3,544 # 80a54b98 <firstuserinit>
    acquire(&p->lock);
    80201980:	00848913          	addi	s2,s1,8
    80201984:	854a                	mv	a0,s2
    80201986:	00007097          	auipc	ra,0x7
    8020198a:	9f0080e7          	jalr	-1552(ra) # 80208376 <acquire>
    if(p->state == UNUSED) {
    8020198e:	509c                	lw	a5,32(s1)
    80201990:	cf81                	beqz	a5,802019a8 <allocproc+0x4e>
      release(&p->lock);
    80201992:	854a                	mv	a0,s2
    80201994:	00007097          	auipc	ra,0x7
    80201998:	a36080e7          	jalr	-1482(ra) # 802083ca <release>
  for(p = proc; p < &proc[NPROC]; p++) {
    8020199c:	1d048493          	addi	s1,s1,464
    802019a0:	ff3490e3          	bne	s1,s3,80201980 <allocproc+0x26>
  return NULL;
    802019a4:	4481                	li	s1,0
    802019a6:	a235                	j	80201ad2 <allocproc+0x178>
  p->umask = 0;
    802019a8:	1c04a023          	sw	zero,448(s1)
  p->pid = allocpid();
    802019ac:	00000097          	auipc	ra,0x0
    802019b0:	dec080e7          	jalr	-532(ra) # 80201798 <allocpid>
    802019b4:	c0a8                	sw	a0,64(s1)
  p->killed = 0;
    802019b6:	0204ac23          	sw	zero,56(s1)
  p->mf = NULL;
    802019ba:	1804b023          	sd	zero,384(s1)
  p->filelimit = NOFILE;
    802019be:	0c800793          	li	a5,200
    802019c2:	f0fc                	sd	a5,224(s1)
  p->robust_list = NULL;
    802019c4:	1a04bc23          	sd	zero,440(s1)
  p->clear_child_tid = NULL;
    802019c8:	1a04b823          	sd	zero,432(s1)
  p->set_child_tid = NULL;
    802019cc:	1a04b423          	sd	zero,424(s1)
  p->vma = NULL;
    802019d0:	1604b823          	sd	zero,368(s1)
  p->uid = 0;
    802019d4:	0404a223          	sw	zero,68(s1)
  p->gid = 0;
    802019d8:	0404a423          	sw	zero,72(s1)
  p->vswtch = 0;
    802019dc:	1c04a223          	sw	zero,452(s1)
  p->ivswtch = 0;
    802019e0:	1c04a423          	sw	zero,456(s1)
  p->sleep_expire = 0;
    802019e4:	1004bc23          	sd	zero,280(s1)
  p->q = NULL;
    802019e8:	1604bc23          	sd	zero,376(s1)
  p->proc_tms.utime = 0;
    802019ec:	1204b023          	sd	zero,288(s1)
  p->proc_tms.stime = 0;
    802019f0:	1204b423          	sd	zero,296(s1)
  p->proc_tms.cutime = 0;
    802019f4:	1204b823          	sd	zero,304(s1)
  p->proc_tms.cstime = 0;
    802019f8:	1204bc23          	sd	zero,312(s1)
  list_init(&p->c_list);
    802019fc:	15048793          	addi	a5,s1,336
	node->prev = node->next = node;
    80201a00:	14f4bc23          	sd	a5,344(s1)
    80201a04:	14f4b823          	sd	a5,336(s1)
  list_init(&p->sib_list);
    80201a08:	16048793          	addi	a5,s1,352
    80201a0c:	16f4b423          	sd	a5,360(s1)
    80201a10:	16f4b023          	sd	a5,352(s1)
  if((p->trapframe = allocpage()) == NULL){
    80201a14:	00007097          	auipc	ra,0x7
    80201a18:	76c080e7          	jalr	1900(ra) # 80209180 <_allocpage>
    80201a1c:	f4a8                	sd	a0,104(s1)
    80201a1e:	c561                	beqz	a0,80201ae6 <allocproc+0x18c>
  p->kstack = (uint64)allocpage();
    80201a20:	00007097          	auipc	ra,0x7
    80201a24:	760080e7          	jalr	1888(ra) # 80209180 <_allocpage>
    80201a28:	e8a8                	sd	a0,80(s1)
  if ((proc_pagetable(p, pp, thread_create)) == NULL) {
    80201a2a:	8652                	mv	a2,s4
    80201a2c:	85d6                	mv	a1,s5
    80201a2e:	8526                	mv	a0,s1
    80201a30:	00000097          	auipc	ra,0x0
    80201a34:	de4080e7          	jalr	-540(ra) # 80201814 <proc_pagetable>
    80201a38:	89aa                	mv	s3,a0
    80201a3a:	cd4d                	beqz	a0,80201af4 <allocproc+0x19a>
  p->ofile = kmalloc(NOFILE*sizeof(struct file*));
    80201a3c:	64000513          	li	a0,1600
    80201a40:	00008097          	auipc	ra,0x8
    80201a44:	9c8080e7          	jalr	-1592(ra) # 80209408 <kmalloc>
    80201a48:	f4e8                	sd	a0,232(s1)
  p->exec_close = kmalloc(NOFILE*sizeof(int));
    80201a4a:	32000513          	li	a0,800
    80201a4e:	00008097          	auipc	ra,0x8
    80201a52:	9ba080e7          	jalr	-1606(ra) # 80209408 <kmalloc>
    80201a56:	f8e8                	sd	a0,240(s1)
  if(!p->ofile){
    80201a58:	74f8                	ld	a4,232(s1)
    80201a5a:	4781                	li	a5,0
  for(int fd = 0; fd < NOFILE; fd++){
    80201a5c:	32000613          	li	a2,800
  if(!p->ofile){
    80201a60:	c755                	beqz	a4,80201b0c <allocproc+0x1b2>
    p->ofile[fd] = NULL;
    80201a62:	74f8                	ld	a4,232(s1)
    80201a64:	00179693          	slli	a3,a5,0x1
    80201a68:	9736                	add	a4,a4,a3
    80201a6a:	00073023          	sd	zero,0(a4)
    p->exec_close[fd] = 0;
    80201a6e:	78f8                	ld	a4,240(s1)
    80201a70:	973e                	add	a4,a4,a5
    80201a72:	00072023          	sw	zero,0(a4)
  for(int fd = 0; fd < NOFILE; fd++){
    80201a76:	0791                	addi	a5,a5,4
    80201a78:	fec795e3          	bne	a5,a2,80201a62 <allocproc+0x108>
  memset(p->ofile, 0, NOFILE*sizeof(struct file*));
    80201a7c:	64000613          	li	a2,1600
    80201a80:	4581                	li	a1,0
    80201a82:	74e8                	ld	a0,232(s1)
    80201a84:	fffff097          	auipc	ra,0xfffff
    80201a88:	2f0080e7          	jalr	752(ra) # 80200d74 <memset>
  memset(&p->context, 0, sizeof(p->context));
    80201a8c:	07000613          	li	a2,112
    80201a90:	4581                	li	a1,0
    80201a92:	07048513          	addi	a0,s1,112
    80201a96:	fffff097          	auipc	ra,0xfffff
    80201a9a:	2de080e7          	jalr	734(ra) # 80200d74 <memset>
  p->context.ra = (uint64)forkret;
    80201a9e:	fffff797          	auipc	a5,0xfffff
    80201aa2:	73278793          	addi	a5,a5,1842 # 802011d0 <forkret>
    80201aa6:	f8bc                	sd	a5,112(s1)
  p->context.sp = p->kstack + PGSIZE;
    80201aa8:	68bc                	ld	a5,80(s1)
    80201aaa:	6705                	lui	a4,0x1
    80201aac:	97ba                	add	a5,a5,a4
    80201aae:	fcbc                	sd	a5,120(s1)
  p->proc_tms.utime = 0;
    80201ab0:	1204b023          	sd	zero,288(s1)
  p->proc_tms.stime = 0;
    80201ab4:	1204b423          	sd	zero,296(s1)
  p->proc_tms.cutime = 1;
    80201ab8:	4785                	li	a5,1
    80201aba:	12f4b823          	sd	a5,304(s1)
  p->proc_tms.cstime = 1;
    80201abe:	12f4bc23          	sd	a5,312(s1)
  p->sig_act = NULL;
    80201ac2:	1804b423          	sd	zero,392(s1)
  p->sig_frame = NULL;
    80201ac6:	1a04b023          	sd	zero,416(s1)
	p->sig_pending.__val[i] = 0;
    80201aca:	1804bc23          	sd	zero,408(s1)
  p->killed = 0;
    80201ace:	0204ac23          	sw	zero,56(s1)
}
    80201ad2:	8526                	mv	a0,s1
    80201ad4:	70e2                	ld	ra,56(sp)
    80201ad6:	7442                	ld	s0,48(sp)
    80201ad8:	74a2                	ld	s1,40(sp)
    80201ada:	7902                	ld	s2,32(sp)
    80201adc:	69e2                	ld	s3,24(sp)
    80201ade:	6a42                	ld	s4,16(sp)
    80201ae0:	6aa2                	ld	s5,8(sp)
    80201ae2:	6121                	addi	sp,sp,64
    80201ae4:	8082                	ret
    release(&p->lock);
    80201ae6:	854a                	mv	a0,s2
    80201ae8:	00007097          	auipc	ra,0x7
    80201aec:	8e2080e7          	jalr	-1822(ra) # 802083ca <release>
    return NULL;
    80201af0:	4481                	li	s1,0
    80201af2:	b7c5                	j	80201ad2 <allocproc+0x178>
    freeproc(p);
    80201af4:	8526                	mv	a0,s1
    80201af6:	fffff097          	auipc	ra,0xfffff
    80201afa:	704080e7          	jalr	1796(ra) # 802011fa <freeproc>
    release(&p->lock);
    80201afe:	854a                	mv	a0,s2
    80201b00:	00007097          	auipc	ra,0x7
    80201b04:	8ca080e7          	jalr	-1846(ra) # 802083ca <release>
    return NULL;
    80201b08:	84ce                	mv	s1,s3
    80201b0a:	b7e1                	j	80201ad2 <allocproc+0x178>
    panic("proc ofile init\n");
    80201b0c:	00010517          	auipc	a0,0x10
    80201b10:	68450513          	addi	a0,a0,1668 # 80212190 <rodata_start+0x190>
    80201b14:	00007097          	auipc	ra,0x7
    80201b18:	bd2080e7          	jalr	-1070(ra) # 802086e6 <panic>

0000000080201b1c <proc_freepagetable>:
{
    80201b1c:	1141                	addi	sp,sp,-16
    80201b1e:	e406                	sd	ra,8(sp)
    80201b20:	e022                	sd	s0,0(sp)
    80201b22:	0800                	addi	s0,sp,16
  uvmfree(p);
    80201b24:	00008097          	auipc	ra,0x8
    80201b28:	2da080e7          	jalr	730(ra) # 80209dfe <uvmfree>
}
    80201b2c:	60a2                	ld	ra,8(sp)
    80201b2e:	6402                	ld	s0,0(sp)
    80201b30:	0141                	addi	sp,sp,16
    80201b32:	8082                	ret

0000000080201b34 <procnum>:
{
    80201b34:	1141                	addi	sp,sp,-16
    80201b36:	e422                	sd	s0,8(sp)
    80201b38:	0800                	addi	s0,sp,16
  for (p = proc; p < &proc[NPROC]; p++) {
    80201b3a:	00848797          	auipc	a5,0x848
    80201b3e:	b1e78793          	addi	a5,a5,-1250 # 80a49658 <proc>
  int num = 0;
    80201b42:	4501                	li	a0,0
  for (p = proc; p < &proc[NPROC]; p++) {
    80201b44:	00853697          	auipc	a3,0x853
    80201b48:	05468693          	addi	a3,a3,84 # 80a54b98 <firstuserinit>
    80201b4c:	a029                	j	80201b56 <procnum+0x22>
    80201b4e:	1d078793          	addi	a5,a5,464
    80201b52:	00d78663          	beq	a5,a3,80201b5e <procnum+0x2a>
    if (p->state != UNUSED) {
    80201b56:	5398                	lw	a4,32(a5)
    80201b58:	db7d                	beqz	a4,80201b4e <procnum+0x1a>
      num++;
    80201b5a:	2505                	addiw	a0,a0,1
    80201b5c:	bfcd                	j	80201b4e <procnum+0x1a>
}
    80201b5e:	6422                	ld	s0,8(sp)
    80201b60:	0141                	addi	sp,sp,16
    80201b62:	8082                	ret

0000000080201b64 <sched>:
{
    80201b64:	1101                	addi	sp,sp,-32
    80201b66:	ec06                	sd	ra,24(sp)
    80201b68:	e822                	sd	s0,16(sp)
    80201b6a:	e426                	sd	s1,8(sp)
    80201b6c:	e04a                	sd	s2,0(sp)
    80201b6e:	1000                	addi	s0,sp,32
  struct proc *p = myproc();
    80201b70:	0000a097          	auipc	ra,0xa
    80201b74:	8dc080e7          	jalr	-1828(ra) # 8020b44c <myproc>
    80201b78:	84aa                	mv	s1,a0
  if(!holding(&p->lock))
    80201b7a:	0521                	addi	a0,a0,8
    80201b7c:	00006097          	auipc	ra,0x6
    80201b80:	7cc080e7          	jalr	1996(ra) # 80208348 <holding>
    80201b84:	cd39                	beqz	a0,80201be2 <sched+0x7e>
  if(mycpu()->noff != 1)
    80201b86:	0000a097          	auipc	ra,0xa
    80201b8a:	8aa080e7          	jalr	-1878(ra) # 8020b430 <mycpu>
    80201b8e:	5d38                	lw	a4,120(a0)
    80201b90:	4785                	li	a5,1
    80201b92:	06f71063          	bne	a4,a5,80201bf2 <sched+0x8e>
  if(p->state == RUNNING)
    80201b96:	5098                	lw	a4,32(s1)
    80201b98:	478d                	li	a5,3
    80201b9a:	06f70463          	beq	a4,a5,80201c02 <sched+0x9e>
  asm volatile("csrr %0, sstatus" : "=r" (x) );
    80201b9e:	100027f3          	csrr	a5,sstatus
  return (x & SSTATUS_SIE) != 0;
    80201ba2:	8b89                	andi	a5,a5,2
  if(intr_get())
    80201ba4:	e7bd                	bnez	a5,80201c12 <sched+0xae>
  intena = mycpu()->intena;
    80201ba6:	0000a097          	auipc	ra,0xa
    80201baa:	88a080e7          	jalr	-1910(ra) # 8020b430 <mycpu>
    80201bae:	07c52903          	lw	s2,124(a0)
  swtch(&p->context, &mycpu()->context);
    80201bb2:	0000a097          	auipc	ra,0xa
    80201bb6:	87e080e7          	jalr	-1922(ra) # 8020b430 <mycpu>
    80201bba:	00850593          	addi	a1,a0,8
    80201bbe:	07048513          	addi	a0,s1,112
    80201bc2:	00006097          	auipc	ra,0x6
    80201bc6:	1ca080e7          	jalr	458(ra) # 80207d8c <swtch>
  mycpu()->intena = intena;
    80201bca:	0000a097          	auipc	ra,0xa
    80201bce:	866080e7          	jalr	-1946(ra) # 8020b430 <mycpu>
    80201bd2:	07252e23          	sw	s2,124(a0)
}
    80201bd6:	60e2                	ld	ra,24(sp)
    80201bd8:	6442                	ld	s0,16(sp)
    80201bda:	64a2                	ld	s1,8(sp)
    80201bdc:	6902                	ld	s2,0(sp)
    80201bde:	6105                	addi	sp,sp,32
    80201be0:	8082                	ret
    panic("sched p->lock");
    80201be2:	00010517          	auipc	a0,0x10
    80201be6:	5c650513          	addi	a0,a0,1478 # 802121a8 <rodata_start+0x1a8>
    80201bea:	00007097          	auipc	ra,0x7
    80201bee:	afc080e7          	jalr	-1284(ra) # 802086e6 <panic>
    panic("sched locks");
    80201bf2:	00010517          	auipc	a0,0x10
    80201bf6:	5c650513          	addi	a0,a0,1478 # 802121b8 <rodata_start+0x1b8>
    80201bfa:	00007097          	auipc	ra,0x7
    80201bfe:	aec080e7          	jalr	-1300(ra) # 802086e6 <panic>
    panic("sched running");
    80201c02:	00010517          	auipc	a0,0x10
    80201c06:	5c650513          	addi	a0,a0,1478 # 802121c8 <rodata_start+0x1c8>
    80201c0a:	00007097          	auipc	ra,0x7
    80201c0e:	adc080e7          	jalr	-1316(ra) # 802086e6 <panic>
    panic("sched interruptible");
    80201c12:	00010517          	auipc	a0,0x10
    80201c16:	5c650513          	addi	a0,a0,1478 # 802121d8 <rodata_start+0x1d8>
    80201c1a:	00007097          	auipc	ra,0x7
    80201c1e:	acc080e7          	jalr	-1332(ra) # 802086e6 <panic>

0000000080201c22 <sleep>:
{
    80201c22:	7179                	addi	sp,sp,-48
    80201c24:	f406                	sd	ra,40(sp)
    80201c26:	f022                	sd	s0,32(sp)
    80201c28:	ec26                	sd	s1,24(sp)
    80201c2a:	e84a                	sd	s2,16(sp)
    80201c2c:	e44e                	sd	s3,8(sp)
    80201c2e:	e052                	sd	s4,0(sp)
    80201c30:	1800                	addi	s0,sp,48
    80201c32:	89aa                	mv	s3,a0
    80201c34:	892e                	mv	s2,a1
  struct proc *p = myproc();
    80201c36:	0000a097          	auipc	ra,0xa
    80201c3a:	816080e7          	jalr	-2026(ra) # 8020b44c <myproc>
    80201c3e:	84aa                	mv	s1,a0
  if(lk != &p->lock){  //DOC: sleeplock0
    80201c40:	00850a13          	addi	s4,a0,8
    80201c44:	0b2a0b63          	beq	s4,s2,80201cfa <sleep+0xd8>
    acquire(&p->lock);  //DOC: sleeplock1
    80201c48:	8552                	mv	a0,s4
    80201c4a:	00006097          	auipc	ra,0x6
    80201c4e:	72c080e7          	jalr	1836(ra) # 80208376 <acquire>
    release(lk);
    80201c52:	854a                	mv	a0,s2
    80201c54:	00006097          	auipc	ra,0x6
    80201c58:	776080e7          	jalr	1910(ra) # 802083ca <release>
  queue* q = findwaitq(chan);
    80201c5c:	854e                	mv	a0,s3
    80201c5e:	fffff097          	auipc	ra,0xfffff
    80201c62:	748080e7          	jalr	1864(ra) # 802013a6 <findwaitq>
  if(!q)q = allocwaitq(chan);
    80201c66:	c529                	beqz	a0,80201cb0 <sleep+0x8e>
  waitq_push(q,p);
    80201c68:	85a6                	mv	a1,s1
    80201c6a:	00000097          	auipc	ra,0x0
    80201c6e:	9ba080e7          	jalr	-1606(ra) # 80201624 <waitq_push>
  p->vswtch += 1;
    80201c72:	1c44a783          	lw	a5,452(s1)
    80201c76:	2785                	addiw	a5,a5,1
    80201c78:	1cf4a223          	sw	a5,452(s1)
  p->state = SLEEPING;
    80201c7c:	4785                	li	a5,1
    80201c7e:	d09c                	sw	a5,32(s1)
  sched();
    80201c80:	00000097          	auipc	ra,0x0
    80201c84:	ee4080e7          	jalr	-284(ra) # 80201b64 <sched>
  p->chan = 0;
    80201c88:	0204b823          	sd	zero,48(s1)
    release(&p->lock);
    80201c8c:	8552                	mv	a0,s4
    80201c8e:	00006097          	auipc	ra,0x6
    80201c92:	73c080e7          	jalr	1852(ra) # 802083ca <release>
    acquire(lk);
    80201c96:	854a                	mv	a0,s2
    80201c98:	00006097          	auipc	ra,0x6
    80201c9c:	6de080e7          	jalr	1758(ra) # 80208376 <acquire>
}
    80201ca0:	70a2                	ld	ra,40(sp)
    80201ca2:	7402                	ld	s0,32(sp)
    80201ca4:	64e2                	ld	s1,24(sp)
    80201ca6:	6942                	ld	s2,16(sp)
    80201ca8:	69a2                	ld	s3,8(sp)
    80201caa:	6a02                	ld	s4,0(sp)
    80201cac:	6145                	addi	sp,sp,48
    80201cae:	8082                	ret
  if(!q)q = allocwaitq(chan);
    80201cb0:	854e                	mv	a0,s3
    80201cb2:	fffff097          	auipc	ra,0xfffff
    80201cb6:	782080e7          	jalr	1922(ra) # 80201434 <allocwaitq>
    80201cba:	89aa                	mv	s3,a0
  if(!q){
    80201cbc:	e909                	bnez	a0,80201cce <sleep+0xac>
    __debug_error("waitq pool is full\n");
    80201cbe:	00010517          	auipc	a0,0x10
    80201cc2:	53250513          	addi	a0,a0,1330 # 802121f0 <rodata_start+0x1f0>
    80201cc6:	00007097          	auipc	ra,0x7
    80201cca:	fcc080e7          	jalr	-52(ra) # 80208c92 <__debug_error>
  waitq_push(q,p);
    80201cce:	85a6                	mv	a1,s1
    80201cd0:	854e                	mv	a0,s3
    80201cd2:	00000097          	auipc	ra,0x0
    80201cd6:	952080e7          	jalr	-1710(ra) # 80201624 <waitq_push>
  p->vswtch += 1;
    80201cda:	1c44a783          	lw	a5,452(s1)
    80201cde:	2785                	addiw	a5,a5,1
    80201ce0:	1cf4a223          	sw	a5,452(s1)
  p->state = SLEEPING;
    80201ce4:	4785                	li	a5,1
    80201ce6:	d09c                	sw	a5,32(s1)
  sched();
    80201ce8:	00000097          	auipc	ra,0x0
    80201cec:	e7c080e7          	jalr	-388(ra) # 80201b64 <sched>
  p->chan = 0;
    80201cf0:	0204b823          	sd	zero,48(s1)
  if(lk != &p->lock){
    80201cf4:	f92a1ce3          	bne	s4,s2,80201c8c <sleep+0x6a>
    80201cf8:	b765                	j	80201ca0 <sleep+0x7e>
  queue* q = findwaitq(chan);
    80201cfa:	854e                	mv	a0,s3
    80201cfc:	fffff097          	auipc	ra,0xfffff
    80201d00:	6aa080e7          	jalr	1706(ra) # 802013a6 <findwaitq>
  if(!q)q = allocwaitq(chan);
    80201d04:	d555                	beqz	a0,80201cb0 <sleep+0x8e>
  waitq_push(q,p);
    80201d06:	85a6                	mv	a1,s1
    80201d08:	00000097          	auipc	ra,0x0
    80201d0c:	91c080e7          	jalr	-1764(ra) # 80201624 <waitq_push>
  p->vswtch += 1;
    80201d10:	1c44a783          	lw	a5,452(s1)
    80201d14:	2785                	addiw	a5,a5,1
    80201d16:	1cf4a223          	sw	a5,452(s1)
  p->state = SLEEPING;
    80201d1a:	4785                	li	a5,1
    80201d1c:	d09c                	sw	a5,32(s1)
  sched();
    80201d1e:	00000097          	auipc	ra,0x0
    80201d22:	e46080e7          	jalr	-442(ra) # 80201b64 <sched>
  p->chan = 0;
    80201d26:	0204b823          	sd	zero,48(s1)
  if(lk != &p->lock){
    80201d2a:	bf9d                	j	80201ca0 <sleep+0x7e>

0000000080201d2c <wakeup>:
{
    80201d2c:	1101                	addi	sp,sp,-32
    80201d2e:	ec06                	sd	ra,24(sp)
    80201d30:	e822                	sd	s0,16(sp)
    80201d32:	e426                	sd	s1,8(sp)
    80201d34:	e04a                	sd	s2,0(sp)
    80201d36:	1000                	addi	s0,sp,32
   queue* q = findwaitq(chan);
    80201d38:	fffff097          	auipc	ra,0xfffff
    80201d3c:	66e080e7          	jalr	1646(ra) # 802013a6 <findwaitq>
    80201d40:	84aa                	mv	s1,a0
       p->state = RUNNABLE;
    80201d42:	4909                	li	s2,2
   if(q){
    80201d44:	e909                	bnez	a0,80201d56 <wakeup+0x2a>
     return 0;
    80201d46:	4501                	li	a0,0
    80201d48:	a01d                	j	80201d6e <wakeup+0x42>
       p->state = RUNNABLE;
    80201d4a:	03252023          	sw	s2,32(a0)
       readyq_push(p);
    80201d4e:	fffff097          	auipc	ra,0xfffff
    80201d52:	7f2080e7          	jalr	2034(ra) # 80201540 <readyq_push>
     while((p = waitq_pop(q))!=NULL){
    80201d56:	8526                	mv	a0,s1
    80201d58:	00000097          	auipc	ra,0x0
    80201d5c:	91e080e7          	jalr	-1762(ra) # 80201676 <waitq_pop>
    80201d60:	f56d                	bnez	a0,80201d4a <wakeup+0x1e>
     delwaitq(q);
    80201d62:	8526                	mv	a0,s1
    80201d64:	fffff097          	auipc	ra,0xfffff
    80201d68:	77e080e7          	jalr	1918(ra) # 802014e2 <delwaitq>
     return 1;
    80201d6c:	4505                	li	a0,1
}
    80201d6e:	60e2                	ld	ra,24(sp)
    80201d70:	6442                	ld	s0,16(sp)
    80201d72:	64a2                	ld	s1,8(sp)
    80201d74:	6902                	ld	s2,0(sp)
    80201d76:	6105                	addi	sp,sp,32
    80201d78:	8082                	ret

0000000080201d7a <allocparent>:
allocparent(struct proc* parent,struct proc* child){
    80201d7a:	1141                	addi	sp,sp,-16
    80201d7c:	e422                	sd	s0,8(sp)
    80201d7e:	0800                	addi	s0,sp,16
  child->parent = parent;
    80201d80:	f588                	sd	a0,40(a1)
  list_add_after(&parent->c_list,&child->sib_list);
    80201d82:	16058713          	addi	a4,a1,352
	__list_insert(node, afterme, afterme->next);
    80201d86:	15853783          	ld	a5,344(a0)
	prev->next = next->prev = node;
    80201d8a:	e398                	sd	a4,0(a5)
    80201d8c:	14e53c23          	sd	a4,344(a0)
	node->next = next;
    80201d90:	16f5b423          	sd	a5,360(a1)
    80201d94:	15050513          	addi	a0,a0,336
	node->prev = prev;
    80201d98:	16a5b023          	sd	a0,352(a1)
}
    80201d9c:	6422                	ld	s0,8(sp)
    80201d9e:	0141                	addi	sp,sp,16
    80201da0:	8082                	ret

0000000080201da2 <userinit>:
{
    80201da2:	1101                	addi	sp,sp,-32
    80201da4:	ec06                	sd	ra,24(sp)
    80201da6:	e822                	sd	s0,16(sp)
    80201da8:	e426                	sd	s1,8(sp)
    80201daa:	e04a                	sd	s2,0(sp)
    80201dac:	1000                	addi	s0,sp,32
  p = allocproc(0, 0);
    80201dae:	4581                	li	a1,0
    80201db0:	4501                	li	a0,0
    80201db2:	00000097          	auipc	ra,0x0
    80201db6:	ba8080e7          	jalr	-1112(ra) # 8020195a <allocproc>
    80201dba:	84aa                	mv	s1,a0
  if(firstuserinit){
    80201dbc:	00853797          	auipc	a5,0x853
    80201dc0:	ddc7a783          	lw	a5,-548(a5) # 80a54b98 <firstuserinit>
    80201dc4:	c3f1                	beqz	a5,80201e88 <userinit+0xe6>
    initproc = p;
    80201dc6:	00853797          	auipc	a5,0x853
    80201dca:	dea7b123          	sd	a0,-542(a5) # 80a54ba8 <initproc>
    firstuserinit = 0;
    80201dce:	00853797          	auipc	a5,0x853
    80201dd2:	dc07a523          	sw	zero,-566(a5) # 80a54b98 <firstuserinit>
  alloc_load_vma(p, (uint64) 0, initcodesize, PTE_R|PTE_W|PTE_X|PTE_U);
    80201dd6:	00004917          	auipc	s2,0x4
    80201dda:	1f690913          	addi	s2,s2,502 # 80205fcc <initcodesize>
    80201dde:	46f9                	li	a3,30
    80201de0:	00092603          	lw	a2,0(s2)
    80201de4:	4581                	li	a1,0
    80201de6:	8526                	mv	a0,s1
    80201de8:	0000a097          	auipc	ra,0xa
    80201dec:	c0c080e7          	jalr	-1012(ra) # 8020b9f4 <alloc_load_vma>
  copyout(p->pagetable,0,initcode,initcodesize);
    80201df0:	00092683          	lw	a3,0(s2)
    80201df4:	00004617          	auipc	a2,0x4
    80201df8:	13c60613          	addi	a2,a2,316 # 80205f30 <initcode>
    80201dfc:	4581                	li	a1,0
    80201dfe:	70a8                	ld	a0,96(s1)
    80201e00:	00009097          	auipc	ra,0x9
    80201e04:	cec080e7          	jalr	-788(ra) # 8020aaec <copyout>
  p->trapframe->epc = 0x0;      // user program counter
    80201e08:	74bc                	ld	a5,104(s1)
    80201e0a:	0007bc23          	sd	zero,24(a5)
  p->trapframe->sp = type_locate_vma(p->vma,STACK)->end;  // user stack pointer
    80201e0e:	459d                	li	a1,7
    80201e10:	1704b503          	ld	a0,368(s1)
    80201e14:	00009097          	auipc	ra,0x9
    80201e18:	7d6080e7          	jalr	2006(ra) # 8020b5ea <type_locate_vma>
    80201e1c:	74bc                	ld	a5,104(s1)
    80201e1e:	6d18                	ld	a4,24(a0)
    80201e20:	fb98                	sd	a4,48(a5)
  safestrcpy(p->name, "initcode", sizeof(p->name));
    80201e22:	4651                	li	a2,20
    80201e24:	00010597          	auipc	a1,0x10
    80201e28:	3e458593          	addi	a1,a1,996 # 80212208 <rodata_start+0x208>
    80201e2c:	10048513          	addi	a0,s1,256
    80201e30:	fffff097          	auipc	ra,0xfffff
    80201e34:	09a080e7          	jalr	154(ra) # 80200eca <safestrcpy>
  p->state = RUNNABLE;
    80201e38:	4789                	li	a5,2
    80201e3a:	d09c                	sw	a5,32(s1)
  readyq_push(p);//insert to ready queue
    80201e3c:	8526                	mv	a0,s1
    80201e3e:	fffff097          	auipc	ra,0xfffff
    80201e42:	702080e7          	jalr	1794(ra) # 80201540 <readyq_push>
  p->tmask = 0;
    80201e46:	1004aa23          	sw	zero,276(s1)
  p->cwd = ename(NULL,"/",0);
    80201e4a:	4601                	li	a2,0
    80201e4c:	00012597          	auipc	a1,0x12
    80201e50:	b3c58593          	addi	a1,a1,-1220 # 80213988 <vma_type+0x4b0>
    80201e54:	4501                	li	a0,0
    80201e56:	00002097          	auipc	ra,0x2
    80201e5a:	55e080e7          	jalr	1374(ra) # 802043b4 <ename>
    80201e5e:	fce8                	sd	a0,248(s1)
  release(&p->lock);
    80201e60:	00848513          	addi	a0,s1,8
    80201e64:	00006097          	auipc	ra,0x6
    80201e68:	566080e7          	jalr	1382(ra) # 802083ca <release>
  __debug_info("userinit\n");
    80201e6c:	00010517          	auipc	a0,0x10
    80201e70:	3ac50513          	addi	a0,a0,940 # 80212218 <rodata_start+0x218>
    80201e74:	00007097          	auipc	ra,0x7
    80201e78:	a82080e7          	jalr	-1406(ra) # 802088f6 <__debug_info>
}
    80201e7c:	60e2                	ld	ra,24(sp)
    80201e7e:	6442                	ld	s0,16(sp)
    80201e80:	64a2                	ld	s1,8(sp)
    80201e82:	6902                	ld	s2,0(sp)
    80201e84:	6105                	addi	sp,sp,32
    80201e86:	8082                	ret
    allocparent(p,initproc);
    80201e88:	00853917          	auipc	s2,0x853
    80201e8c:	d2090913          	addi	s2,s2,-736 # 80a54ba8 <initproc>
    80201e90:	00093583          	ld	a1,0(s2)
    80201e94:	00000097          	auipc	ra,0x0
    80201e98:	ee6080e7          	jalr	-282(ra) # 80201d7a <allocparent>
    initproc = p;
    80201e9c:	00993023          	sd	s1,0(s2)
    80201ea0:	bf1d                	j	80201dd6 <userinit+0x34>

0000000080201ea2 <clone>:
int clone(uint64 flag, uint64 stack, uint64 ptid, uint64 tls, uint64 ctid) {
    80201ea2:	715d                	addi	sp,sp,-80
    80201ea4:	e486                	sd	ra,72(sp)
    80201ea6:	e0a2                	sd	s0,64(sp)
    80201ea8:	fc26                	sd	s1,56(sp)
    80201eaa:	f84a                	sd	s2,48(sp)
    80201eac:	f44e                	sd	s3,40(sp)
    80201eae:	f052                	sd	s4,32(sp)
    80201eb0:	ec56                	sd	s5,24(sp)
    80201eb2:	e85a                	sd	s6,16(sp)
    80201eb4:	e45e                	sd	s7,8(sp)
    80201eb6:	0880                	addi	s0,sp,80
    80201eb8:	8b2a                	mv	s6,a0
    80201eba:	84ae                	mv	s1,a1
    80201ebc:	8932                	mv	s2,a2
    80201ebe:	8a36                	mv	s4,a3
    80201ec0:	8bba                	mv	s7,a4
  struct proc *p = myproc();
    80201ec2:	00009097          	auipc	ra,0x9
    80201ec6:	58a080e7          	jalr	1418(ra) # 8020b44c <myproc>
    80201eca:	89aa                	mv	s3,a0
  if((flag & CLONE_THREAD) && (flag & CLONE_VM))
    80201ecc:	67c1                	lui	a5,0x10
    80201ece:	10078793          	addi	a5,a5,256 # 10100 <_entry-0x801eff00>
    80201ed2:	00fb7733          	and	a4,s6,a5
    80201ed6:	08f70463          	beq	a4,a5,80201f5e <clone+0xbc>
    if((np = allocproc(p, 0)) == NULL){
    80201eda:	4581                	li	a1,0
    80201edc:	00000097          	auipc	ra,0x0
    80201ee0:	a7e080e7          	jalr	-1410(ra) # 8020195a <allocproc>
    80201ee4:	8aaa                	mv	s5,a0
    80201ee6:	18050c63          	beqz	a0,8020207e <clone+0x1dc>
    *(np->trapframe) = *(p->trapframe);
    80201eea:	0689b683          	ld	a3,104(s3)
    80201eee:	87b6                	mv	a5,a3
    80201ef0:	7538                	ld	a4,104(a0)
    80201ef2:	12068693          	addi	a3,a3,288
    80201ef6:	0007b803          	ld	a6,0(a5)
    80201efa:	6788                	ld	a0,8(a5)
    80201efc:	6b8c                	ld	a1,16(a5)
    80201efe:	6f90                	ld	a2,24(a5)
    80201f00:	01073023          	sd	a6,0(a4) # 1000 <_entry-0x801ff000>
    80201f04:	e708                	sd	a0,8(a4)
    80201f06:	eb0c                	sd	a1,16(a4)
    80201f08:	ef10                	sd	a2,24(a4)
    80201f0a:	02078793          	addi	a5,a5,32
    80201f0e:	02070713          	addi	a4,a4,32
    80201f12:	fed792e3          	bne	a5,a3,80201ef6 <clone+0x54>
    if(stack != 0)
    80201f16:	c481                	beqz	s1,80201f1e <clone+0x7c>
      p->trapframe->sp = stack;
    80201f18:	0689b783          	ld	a5,104(s3)
    80201f1c:	fb84                	sd	s1,48(a5)
  sigaction_copy(&np->sig_act, p->sig_act);
    80201f1e:	1889b583          	ld	a1,392(s3)
    80201f22:	188a8513          	addi	a0,s5,392
    80201f26:	00006097          	auipc	ra,0x6
    80201f2a:	30e080e7          	jalr	782(ra) # 80208234 <sigaction_copy>
  np->sig_frame = p->sig_frame;
    80201f2e:	1a09b783          	ld	a5,416(s3)
    80201f32:	1afab023          	sd	a5,416(s5)
    np->sig_pending.__val[i] = p->sig_pending.__val[i];
    80201f36:	1989b783          	ld	a5,408(s3)
    80201f3a:	18fabc23          	sd	a5,408(s5)
  np->sz = p->sz;
    80201f3e:	0589b783          	ld	a5,88(s3)
    80201f42:	04fabc23          	sd	a5,88(s5)
  np->tmask = p->tmask;
    80201f46:	1149a783          	lw	a5,276(s3)
    80201f4a:	10faaa23          	sw	a5,276(s5)
  np->trapframe->a0 = 0;
    80201f4e:	068ab783          	ld	a5,104(s5)
    80201f52:	0607b823          	sd	zero,112(a5)
    80201f56:	4481                	li	s1,0
  for(i = 0; i < NOFILE; i++)
    80201f58:	64000a13          	li	s4,1600
    80201f5c:	a841                	j	80201fec <clone+0x14a>
    if((np = allocproc(p, 1)) == NULL){
    80201f5e:	4585                	li	a1,1
    80201f60:	00000097          	auipc	ra,0x0
    80201f64:	9fa080e7          	jalr	-1542(ra) # 8020195a <allocproc>
    80201f68:	8aaa                	mv	s5,a0
    80201f6a:	c939                	beqz	a0,80201fc0 <clone+0x11e>
    *(np->trapframe) = *(p->trapframe);
    80201f6c:	0689b683          	ld	a3,104(s3)
    80201f70:	87b6                	mv	a5,a3
    80201f72:	7538                	ld	a4,104(a0)
    80201f74:	12068693          	addi	a3,a3,288
    80201f78:	0007b803          	ld	a6,0(a5)
    80201f7c:	6788                	ld	a0,8(a5)
    80201f7e:	6b8c                	ld	a1,16(a5)
    80201f80:	6f90                	ld	a2,24(a5)
    80201f82:	01073023          	sd	a6,0(a4)
    80201f86:	e708                	sd	a0,8(a4)
    80201f88:	eb0c                	sd	a1,16(a4)
    80201f8a:	ef10                	sd	a2,24(a4)
    80201f8c:	02078793          	addi	a5,a5,32
    80201f90:	02070713          	addi	a4,a4,32
    80201f94:	fed792e3          	bne	a5,a3,80201f78 <clone+0xd6>
    np->trapframe->tp = tls;
    80201f98:	068ab783          	ld	a5,104(s5)
    80201f9c:	0547b023          	sd	s4,64(a5)
    np->trapframe->sp = stack;
    80201fa0:	068ab783          	ld	a5,104(s5)
    80201fa4:	fb84                	sd	s1,48(a5)
    if(ptid != 0)
    80201fa6:	f6090ce3          	beqz	s2,80201f1e <clone+0x7c>
      copyout(p->pagetable, ptid, (char *)&np->pid, sizeof(int));
    80201faa:	4691                	li	a3,4
    80201fac:	040a8613          	addi	a2,s5,64
    80201fb0:	85ca                	mv	a1,s2
    80201fb2:	0609b503          	ld	a0,96(s3)
    80201fb6:	00009097          	auipc	ra,0x9
    80201fba:	b36080e7          	jalr	-1226(ra) # 8020aaec <copyout>
    80201fbe:	b785                	j	80201f1e <clone+0x7c>
      __debug_warn("alloc process bad\n");
    80201fc0:	00010517          	auipc	a0,0x10
    80201fc4:	26850513          	addi	a0,a0,616 # 80212228 <rodata_start+0x228>
    80201fc8:	00007097          	auipc	ra,0x7
    80201fcc:	af4080e7          	jalr	-1292(ra) # 80208abc <__debug_warn>
      return -1;
    80201fd0:	54fd                	li	s1,-1
    80201fd2:	a851                	j	80202066 <clone+0x1c4>
      np->ofile[i] = filedup(p->ofile[i]);
    80201fd4:	0e8ab903          	ld	s2,232(s5)
    80201fd8:	9926                	add	s2,s2,s1
    80201fda:	00003097          	auipc	ra,0x3
    80201fde:	28a080e7          	jalr	650(ra) # 80205264 <filedup>
    80201fe2:	00a93023          	sd	a0,0(s2)
  for(i = 0; i < NOFILE; i++)
    80201fe6:	04a1                	addi	s1,s1,8
    80201fe8:	01448863          	beq	s1,s4,80201ff8 <clone+0x156>
    if(p->ofile[i])
    80201fec:	0e89b783          	ld	a5,232(s3)
    80201ff0:	97a6                	add	a5,a5,s1
    80201ff2:	6388                	ld	a0,0(a5)
    80201ff4:	f165                	bnez	a0,80201fd4 <clone+0x132>
    80201ff6:	bfc5                	j	80201fe6 <clone+0x144>
  np->cwd = edup(p->cwd);
    80201ff8:	0f89b503          	ld	a0,248(s3)
    80201ffc:	00001097          	auipc	ra,0x1
    80202000:	6a8080e7          	jalr	1704(ra) # 802036a4 <edup>
    80202004:	0eaabc23          	sd	a0,248(s5)
  allocparent(p, np);
    80202008:	85d6                	mv	a1,s5
    8020200a:	854e                	mv	a0,s3
    8020200c:	00000097          	auipc	ra,0x0
    80202010:	d6e080e7          	jalr	-658(ra) # 80201d7a <allocparent>
  safestrcpy(np->name, p->name, sizeof(p->name));
    80202014:	4651                	li	a2,20
    80202016:	10098593          	addi	a1,s3,256
    8020201a:	100a8513          	addi	a0,s5,256
    8020201e:	fffff097          	auipc	ra,0xfffff
    80202022:	eac080e7          	jalr	-340(ra) # 80200eca <safestrcpy>
  pid = np->pid;
    80202026:	040aa483          	lw	s1,64(s5)
  np->state = RUNNABLE;
    8020202a:	4789                	li	a5,2
    8020202c:	02faa023          	sw	a5,32(s5)
  readyq_push(np);
    80202030:	8556                	mv	a0,s5
    80202032:	fffff097          	auipc	ra,0xfffff
    80202036:	50e080e7          	jalr	1294(ra) # 80201540 <readyq_push>
  if(flag & CLONE_CHILD_SETTID){
    8020203a:	027b1793          	slli	a5,s6,0x27
    8020203e:	0007d463          	bgez	a5,80202046 <clone+0x1a4>
    np->set_child_tid = ctid;
    80202042:	1b7ab423          	sd	s7,424(s5)
  if(flag & CLONE_CHILD_CLEARTID){
    80202046:	02ab1793          	slli	a5,s6,0x2a
    8020204a:	0007d463          	bgez	a5,80202052 <clone+0x1b0>
    np->clear_child_tid = ctid;
    8020204e:	1b7ab823          	sd	s7,432(s5)
  p->killed = np->killed;
    80202052:	038aa783          	lw	a5,56(s5)
    80202056:	02f9ac23          	sw	a5,56(s3)
  release(&np->lock);
    8020205a:	008a8513          	addi	a0,s5,8
    8020205e:	00006097          	auipc	ra,0x6
    80202062:	36c080e7          	jalr	876(ra) # 802083ca <release>
}
    80202066:	8526                	mv	a0,s1
    80202068:	60a6                	ld	ra,72(sp)
    8020206a:	6406                	ld	s0,64(sp)
    8020206c:	74e2                	ld	s1,56(sp)
    8020206e:	7942                	ld	s2,48(sp)
    80202070:	79a2                	ld	s3,40(sp)
    80202072:	7a02                	ld	s4,32(sp)
    80202074:	6ae2                	ld	s5,24(sp)
    80202076:	6b42                	ld	s6,16(sp)
    80202078:	6ba2                	ld	s7,8(sp)
    8020207a:	6161                	addi	sp,sp,80
    8020207c:	8082                	ret
      return -1;
    8020207e:	54fd                	li	s1,-1
    80202080:	b7dd                	j	80202066 <clone+0x1c4>

0000000080202082 <getparent>:
getparent(struct proc* child){
    80202082:	1141                	addi	sp,sp,-16
    80202084:	e422                	sd	s0,8(sp)
    80202086:	0800                	addi	s0,sp,16
}
    80202088:	7508                	ld	a0,40(a0)
    8020208a:	6422                	ld	s0,8(sp)
    8020208c:	0141                	addi	sp,sp,16
    8020208e:	8082                	ret

0000000080202090 <findchild>:
findchild(struct proc* p,int (*cond)(struct proc*,int),int pid,struct proc** child){
    80202090:	715d                	addi	sp,sp,-80
    80202092:	e486                	sd	ra,72(sp)
    80202094:	e0a2                	sd	s0,64(sp)
    80202096:	fc26                	sd	s1,56(sp)
    80202098:	f84a                	sd	s2,48(sp)
    8020209a:	f44e                	sd	s3,40(sp)
    8020209c:	f052                	sd	s4,32(sp)
    8020209e:	ec56                	sd	s5,24(sp)
    802020a0:	e85a                	sd	s6,16(sp)
    802020a2:	e45e                	sd	s7,8(sp)
    802020a4:	e062                	sd	s8,0(sp)
    802020a6:	0880                	addi	s0,sp,80
   struct list* c_head = &p->c_list;
    802020a8:	15050a93          	addi	s5,a0,336
static inline struct list *list_prev(struct list *node) {
	return node->prev;
}

static inline struct list *list_next(struct list *node) {
	return node->next;
    802020ac:	15853483          	ld	s1,344(a0)
   *child = NULL;
    802020b0:	0006b023          	sd	zero,0(a3)
   while(c_it!=c_head){
    802020b4:	069a8163          	beq	s5,s1,80202116 <findchild+0x86>
    802020b8:	89ae                	mv	s3,a1
    802020ba:	8a32                	mv	s4,a2
    802020bc:	8bb6                	mv	s7,a3
        if(np->state == ZOMBIE){
    802020be:	4c11                	li	s8,4
    802020c0:	a021                	j	802020c8 <findchild+0x38>
    802020c2:	6484                	ld	s1,8(s1)
   while(c_it!=c_head){
    802020c4:	029a8b63          	beq	s5,s1,802020fa <findchild+0x6a>
  int ivswtch;
};


static inline struct proc* sib_getproc(struct list* list){
  return dlist_entry(list,struct proc,sib_list);
    802020c8:	ea048913          	addi	s2,s1,-352
      if(cond(np,pid)){
    802020cc:	85d2                	mv	a1,s4
    802020ce:	854a                	mv	a0,s2
    802020d0:	9982                	jalr	s3
    802020d2:	d965                	beqz	a0,802020c2 <findchild+0x32>
        acquire(&np->lock);
    802020d4:	ea848b13          	addi	s6,s1,-344
    802020d8:	855a                	mv	a0,s6
    802020da:	00006097          	auipc	ra,0x6
    802020de:	29c080e7          	jalr	668(ra) # 80208376 <acquire>
        *child = np; 
    802020e2:	012bb023          	sd	s2,0(s7)
        if(np->state == ZOMBIE){
    802020e6:	ec04a783          	lw	a5,-320(s1)
    802020ea:	01878963          	beq	a5,s8,802020fc <findchild+0x6c>
        release(&np->lock);
    802020ee:	855a                	mv	a0,s6
    802020f0:	00006097          	auipc	ra,0x6
    802020f4:	2da080e7          	jalr	730(ra) # 802083ca <release>
    802020f8:	b7e9                	j	802020c2 <findchild+0x32>
   return NULL;
    802020fa:	4901                	li	s2,0
}
    802020fc:	854a                	mv	a0,s2
    802020fe:	60a6                	ld	ra,72(sp)
    80202100:	6406                	ld	s0,64(sp)
    80202102:	74e2                	ld	s1,56(sp)
    80202104:	7942                	ld	s2,48(sp)
    80202106:	79a2                	ld	s3,40(sp)
    80202108:	7a02                	ld	s4,32(sp)
    8020210a:	6ae2                	ld	s5,24(sp)
    8020210c:	6b42                	ld	s6,16(sp)
    8020210e:	6ba2                	ld	s7,8(sp)
    80202110:	6c02                	ld	s8,0(sp)
    80202112:	6161                	addi	sp,sp,80
    80202114:	8082                	ret
   return NULL;
    80202116:	4901                	li	s2,0
    80202118:	b7d5                	j	802020fc <findchild+0x6c>

000000008020211a <reparent>:
{
    8020211a:	7139                	addi	sp,sp,-64
    8020211c:	fc06                	sd	ra,56(sp)
    8020211e:	f822                	sd	s0,48(sp)
    80202120:	f426                	sd	s1,40(sp)
    80202122:	f04a                	sd	s2,32(sp)
    80202124:	ec4e                	sd	s3,24(sp)
    80202126:	e852                	sd	s4,16(sp)
    80202128:	e456                	sd	s5,8(sp)
    8020212a:	e05a                	sd	s6,0(sp)
    8020212c:	0080                	addi	s0,sp,64
  struct list *c_head = &p->c_list;
    8020212e:	15050993          	addi	s3,a0,336
	return head->next == head;
    80202132:	15853a83          	ld	s5,344(a0)
  if(list_empty(c_head))return;
    80202136:	05598c63          	beq	s3,s5,8020218e <reparent+0x74>
	return node->prev;
    8020213a:	15053b03          	ld	s6,336(a0)
  struct list *c_it = c_next;
    8020213e:	84d6                	mv	s1,s5
      pp->parent = initproc;
    80202140:	00853a17          	auipc	s4,0x853
    80202144:	a68a0a13          	addi	s4,s4,-1432 # 80a54ba8 <initproc>
      acquire(&pp->lock);
    80202148:	ea848913          	addi	s2,s1,-344
    8020214c:	854a                	mv	a0,s2
    8020214e:	00006097          	auipc	ra,0x6
    80202152:	228080e7          	jalr	552(ra) # 80208376 <acquire>
      pp->parent = initproc;
    80202156:	000a3783          	ld	a5,0(s4)
    8020215a:	ecf4b423          	sd	a5,-312(s1)
      release(&pp->lock);
    8020215e:	854a                	mv	a0,s2
    80202160:	00006097          	auipc	ra,0x6
    80202164:	26a080e7          	jalr	618(ra) # 802083ca <release>
	return node->next;
    80202168:	6484                	ld	s1,8(s1)
  while(c_it!=c_head){
    8020216a:	fc999fe3          	bne	s3,s1,80202148 <reparent+0x2e>
  struct list* init_head = &initproc->c_list;
    8020216e:	00853797          	auipc	a5,0x853
    80202172:	a3a7b783          	ld	a5,-1478(a5) # 80a54ba8 <initproc>
    80202176:	1587b703          	ld	a4,344(a5)
	prev->next = next;
    8020217a:	1557bc23          	sd	s5,344(a5)
    8020217e:	15078793          	addi	a5,a5,336
	next->prev = prev;
    80202182:	00fab023          	sd	a5,0(s5)
	prev->next = next;
    80202186:	00eb3423          	sd	a4,8(s6)
	next->prev = prev;
    8020218a:	01673023          	sd	s6,0(a4)
}
    8020218e:	70e2                	ld	ra,56(sp)
    80202190:	7442                	ld	s0,48(sp)
    80202192:	74a2                	ld	s1,40(sp)
    80202194:	7902                	ld	s2,32(sp)
    80202196:	69e2                	ld	s3,24(sp)
    80202198:	6a42                	ld	s4,16(sp)
    8020219a:	6aa2                	ld	s5,8(sp)
    8020219c:	6b02                	ld	s6,0(sp)
    8020219e:	6121                	addi	sp,sp,64
    802021a0:	8082                	ret

00000000802021a2 <yield>:
{
    802021a2:	1101                	addi	sp,sp,-32
    802021a4:	ec06                	sd	ra,24(sp)
    802021a6:	e822                	sd	s0,16(sp)
    802021a8:	e426                	sd	s1,8(sp)
    802021aa:	e04a                	sd	s2,0(sp)
    802021ac:	1000                	addi	s0,sp,32
  struct proc *p = myproc();
    802021ae:	00009097          	auipc	ra,0x9
    802021b2:	29e080e7          	jalr	670(ra) # 8020b44c <myproc>
    802021b6:	84aa                	mv	s1,a0
  acquire(&p->lock);
    802021b8:	00850913          	addi	s2,a0,8
    802021bc:	854a                	mv	a0,s2
    802021be:	00006097          	auipc	ra,0x6
    802021c2:	1b8080e7          	jalr	440(ra) # 80208376 <acquire>
  readyq_push(p);
    802021c6:	8526                	mv	a0,s1
    802021c8:	fffff097          	auipc	ra,0xfffff
    802021cc:	378080e7          	jalr	888(ra) # 80201540 <readyq_push>
  p->state = RUNNABLE;
    802021d0:	4789                	li	a5,2
    802021d2:	d09c                	sw	a5,32(s1)
  sched();
    802021d4:	00000097          	auipc	ra,0x0
    802021d8:	990080e7          	jalr	-1648(ra) # 80201b64 <sched>
  release(&p->lock);
    802021dc:	854a                	mv	a0,s2
    802021de:	00006097          	auipc	ra,0x6
    802021e2:	1ec080e7          	jalr	492(ra) # 802083ca <release>
}
    802021e6:	60e2                	ld	ra,24(sp)
    802021e8:	6442                	ld	s0,16(sp)
    802021ea:	64a2                	ld	s1,8(sp)
    802021ec:	6902                	ld	s2,0(sp)
    802021ee:	6105                	addi	sp,sp,32
    802021f0:	8082                	ret

00000000802021f2 <wait4pid>:

// Wait for a child process to exit and return its pid.
// Return -1 if this process has no children.
int
wait4pid(int pid,uint64 addr)
{
    802021f2:	711d                	addi	sp,sp,-96
    802021f4:	ec86                	sd	ra,88(sp)
    802021f6:	e8a2                	sd	s0,80(sp)
    802021f8:	e4a6                	sd	s1,72(sp)
    802021fa:	e0ca                	sd	s2,64(sp)
    802021fc:	fc4e                	sd	s3,56(sp)
    802021fe:	f852                	sd	s4,48(sp)
    80202200:	f456                	sd	s5,40(sp)
    80202202:	f05a                	sd	s6,32(sp)
    80202204:	ec5e                	sd	s7,24(sp)
    80202206:	1080                	addi	s0,sp,96
    80202208:	892a                	mv	s2,a0
    8020220a:	8bae                	mv	s7,a1
  int kidpid;
  struct proc *p = myproc();
    8020220c:	00009097          	auipc	ra,0x9
    80202210:	240080e7          	jalr	576(ra) # 8020b44c <myproc>
    80202214:	89aa                	mv	s3,a0
  struct proc* child;
  struct proc* chan = NULL;
    80202216:	fa043423          	sd	zero,-88(s0)
  // hold p->lock for the whole time to avoid lost
  // wakeups from a child's exit().
  acquire(&p->lock);
    8020221a:	00850a13          	addi	s4,a0,8
    8020221e:	8552                	mv	a0,s4
    80202220:	00006097          	auipc	ra,0x6
    80202224:	156080e7          	jalr	342(ra) # 80208376 <acquire>
  //__debug_warn("[wait4pid]pid%d:%s enter\n",p->pid,p->name);
  while(1){
    kidpid = pid;
    child = findchild(p,zombiecond,pid,&chan);
    80202228:	fffffa97          	auipc	s5,0xfffff
    8020222c:	f88a8a93          	addi	s5,s5,-120 # 802011b0 <zombiecond>
    if(!chan){
      //__debug_warn("[wait4pid]pid%d:%s no kid to wait\n",p->pid,p->name);
      release(&p->lock);
      return -1;
    }
    if(pid == -1)sleep(p, &p->lock);  //DOC: wait-sleep
    80202230:	5b7d                	li	s6,-1
    80202232:	a8d1                	j	80202306 <wait4pid+0x114>
      kidpid = child->pid;
    80202234:	04052903          	lw	s2,64(a0)
      p->proc_tms.cstime += child->proc_tms.stime + child->proc_tms.cstime;
    80202238:	12853783          	ld	a5,296(a0)
    8020223c:	13853703          	ld	a4,312(a0)
    80202240:	973e                	add	a4,a4,a5
    80202242:	1389b783          	ld	a5,312(s3)
    80202246:	97ba                	add	a5,a5,a4
    80202248:	12f9bc23          	sd	a5,312(s3)
      p->proc_tms.cutime += child->proc_tms.utime + child->proc_tms.cutime;
    8020224c:	12053783          	ld	a5,288(a0)
    80202250:	13053703          	ld	a4,304(a0)
    80202254:	973e                	add	a4,a4,a5
    80202256:	1309b783          	ld	a5,304(s3)
    8020225a:	97ba                	add	a5,a5,a4
    8020225c:	12f9b823          	sd	a5,304(s3)
      child->xstate <<= 8;
    80202260:	5d5c                	lw	a5,60(a0)
    80202262:	0087979b          	slliw	a5,a5,0x8
    80202266:	dd5c                	sw	a5,60(a0)
      if(addr != 0 && copyout(p->pagetable, addr, (char *)&child->xstate, sizeof(child->xstate)) < 0) {
    80202268:	000b8e63          	beqz	s7,80202284 <wait4pid+0x92>
    8020226c:	4691                	li	a3,4
    8020226e:	03c50613          	addi	a2,a0,60
    80202272:	85de                	mv	a1,s7
    80202274:	0609b503          	ld	a0,96(s3)
    80202278:	00009097          	auipc	ra,0x9
    8020227c:	874080e7          	jalr	-1932(ra) # 8020aaec <copyout>
    80202280:	02054e63          	bltz	a0,802022bc <wait4pid+0xca>
      freeproc(child);
    80202284:	8526                	mv	a0,s1
    80202286:	fffff097          	auipc	ra,0xfffff
    8020228a:	f74080e7          	jalr	-140(ra) # 802011fa <freeproc>
      release(&child->lock);
    8020228e:	00848513          	addi	a0,s1,8
    80202292:	00006097          	auipc	ra,0x6
    80202296:	138080e7          	jalr	312(ra) # 802083ca <release>
      release(&p->lock);
    8020229a:	8552                	mv	a0,s4
    8020229c:	00006097          	auipc	ra,0x6
    802022a0:	12e080e7          	jalr	302(ra) # 802083ca <release>
    else sleep(chan,&p->lock);
  }
  release(&p->lock);
  return 0;
}
    802022a4:	854a                	mv	a0,s2
    802022a6:	60e6                	ld	ra,88(sp)
    802022a8:	6446                	ld	s0,80(sp)
    802022aa:	64a6                	ld	s1,72(sp)
    802022ac:	6906                	ld	s2,64(sp)
    802022ae:	79e2                	ld	s3,56(sp)
    802022b0:	7a42                	ld	s4,48(sp)
    802022b2:	7aa2                	ld	s5,40(sp)
    802022b4:	7b02                	ld	s6,32(sp)
    802022b6:	6be2                	ld	s7,24(sp)
    802022b8:	6125                	addi	sp,sp,96
    802022ba:	8082                	ret
        release(&child->lock);
    802022bc:	00848513          	addi	a0,s1,8
    802022c0:	00006097          	auipc	ra,0x6
    802022c4:	10a080e7          	jalr	266(ra) # 802083ca <release>
        release(&p->lock);
    802022c8:	8552                	mv	a0,s4
    802022ca:	00006097          	auipc	ra,0x6
    802022ce:	100080e7          	jalr	256(ra) # 802083ca <release>
        __debug_warn("[wait4pid]pid%d:%s copyout bad\n",p->pid,p->name);
    802022d2:	10098613          	addi	a2,s3,256
    802022d6:	0409a583          	lw	a1,64(s3)
    802022da:	00010517          	auipc	a0,0x10
    802022de:	f6650513          	addi	a0,a0,-154 # 80212240 <rodata_start+0x240>
    802022e2:	00006097          	auipc	ra,0x6
    802022e6:	7da080e7          	jalr	2010(ra) # 80208abc <__debug_warn>
        return -1;
    802022ea:	597d                	li	s2,-1
    802022ec:	bf65                	j	802022a4 <wait4pid+0xb2>
      release(&p->lock);
    802022ee:	8552                	mv	a0,s4
    802022f0:	00006097          	auipc	ra,0x6
    802022f4:	0da080e7          	jalr	218(ra) # 802083ca <release>
      return -1;
    802022f8:	597d                	li	s2,-1
    802022fa:	b76d                	j	802022a4 <wait4pid+0xb2>
    else sleep(chan,&p->lock);
    802022fc:	85d2                	mv	a1,s4
    802022fe:	00000097          	auipc	ra,0x0
    80202302:	924080e7          	jalr	-1756(ra) # 80201c22 <sleep>
    child = findchild(p,zombiecond,pid,&chan);
    80202306:	fa840693          	addi	a3,s0,-88
    8020230a:	864a                	mv	a2,s2
    8020230c:	85d6                	mv	a1,s5
    8020230e:	854e                	mv	a0,s3
    80202310:	00000097          	auipc	ra,0x0
    80202314:	d80080e7          	jalr	-640(ra) # 80202090 <findchild>
    80202318:	84aa                	mv	s1,a0
    if(child != NULL){
    8020231a:	fd09                	bnez	a0,80202234 <wait4pid+0x42>
    if(!chan){
    8020231c:	fa843503          	ld	a0,-88(s0)
    80202320:	d579                	beqz	a0,802022ee <wait4pid+0xfc>
    if(pid == -1)sleep(p, &p->lock);  //DOC: wait-sleep
    80202322:	fd691de3          	bne	s2,s6,802022fc <wait4pid+0x10a>
    80202326:	85d2                	mv	a1,s4
    80202328:	854e                	mv	a0,s3
    8020232a:	00000097          	auipc	ra,0x0
    8020232e:	8f8080e7          	jalr	-1800(ra) # 80201c22 <sleep>
    80202332:	bfd1                	j	80202306 <wait4pid+0x114>

0000000080202334 <exit>:

void
exit(int n)
{
    80202334:	7179                	addi	sp,sp,-48
    80202336:	f406                	sd	ra,40(sp)
    80202338:	f022                	sd	s0,32(sp)
    8020233a:	ec26                	sd	s1,24(sp)
    8020233c:	e84a                	sd	s2,16(sp)
    8020233e:	e44e                	sd	s3,8(sp)
    80202340:	e052                	sd	s4,0(sp)
    80202342:	1800                	addi	s0,sp,48
    80202344:	8a2a                	mv	s4,a0
  struct proc *p = myproc();
    80202346:	00009097          	auipc	ra,0x9
    8020234a:	106080e7          	jalr	262(ra) # 8020b44c <myproc>
    8020234e:	892a                	mv	s2,a0
    80202350:	4481                	li	s1,0
  //if(p == initproc)
    //panic("init exiting");
  //__debug_warn("[exit]pid %d:%s exit %d\n",p->pid,p->name,n);
  // Close all open files.
  for(int fd = 0; fd < NOFILE; fd++){
    80202352:	64000993          	li	s3,1600
    80202356:	a829                	j	80202370 <exit+0x3c>
    if(p->ofile[fd]){
      struct file *f = p->ofile[fd];
      fileclose(f);
    80202358:	00003097          	auipc	ra,0x3
    8020235c:	f5a080e7          	jalr	-166(ra) # 802052b2 <fileclose>
      p->ofile[fd] = 0;
    80202360:	0e893783          	ld	a5,232(s2)
    80202364:	97a6                	add	a5,a5,s1
    80202366:	0007b023          	sd	zero,0(a5)
  for(int fd = 0; fd < NOFILE; fd++){
    8020236a:	04a1                	addi	s1,s1,8
    8020236c:	01348863          	beq	s1,s3,8020237c <exit+0x48>
    if(p->ofile[fd]){
    80202370:	0e893783          	ld	a5,232(s2)
    80202374:	97a6                	add	a5,a5,s1
    80202376:	6388                	ld	a0,0(a5)
    80202378:	f165                	bnez	a0,80202358 <exit+0x24>
    8020237a:	bfc5                	j	8020236a <exit+0x36>
    }
  }
  if(p->ofile)
    8020237c:	0e893503          	ld	a0,232(s2)
    80202380:	c509                	beqz	a0,8020238a <exit+0x56>
    kfree((void*)p->ofile);
    80202382:	00007097          	auipc	ra,0x7
    80202386:	2d0080e7          	jalr	720(ra) # 80209652 <kfree>
  if(p->exec_close)
    8020238a:	0f093503          	ld	a0,240(s2)
    8020238e:	c509                	beqz	a0,80202398 <exit+0x64>
    kfree((void*)p->exec_close);
    80202390:	00007097          	auipc	ra,0x7
    80202394:	2c2080e7          	jalr	706(ra) # 80209652 <kfree>
  p->ofile = 0;
    80202398:	0e093423          	sd	zero,232(s2)

  eput(p->cwd);
    8020239c:	0f893503          	ld	a0,248(s2)
    802023a0:	00001097          	auipc	ra,0x1
    802023a4:	656080e7          	jalr	1622(ra) # 802039f6 <eput>
  p->cwd = 0;
    802023a8:	0e093c23          	sd	zero,248(s2)
  wakeup(p);
    802023ac:	854a                	mv	a0,s2
    802023ae:	00000097          	auipc	ra,0x0
    802023b2:	97e080e7          	jalr	-1666(ra) # 80201d2c <wakeup>
  acquire(&p->lock);
    802023b6:	00890513          	addi	a0,s2,8
    802023ba:	00006097          	auipc	ra,0x6
    802023be:	fbc080e7          	jalr	-68(ra) # 80208376 <acquire>
  wakeup(getparent(p));
    802023c2:	02893503          	ld	a0,40(s2)
    802023c6:	00000097          	auipc	ra,0x0
    802023ca:	966080e7          	jalr	-1690(ra) # 80201d2c <wakeup>
  reparent(p);
    802023ce:	854a                	mv	a0,s2
    802023d0:	00000097          	auipc	ra,0x0
    802023d4:	d4a080e7          	jalr	-694(ra) # 8020211a <reparent>
  
  p->xstate = n;
    802023d8:	03492e23          	sw	s4,60(s2)
  p->state = ZOMBIE;
    802023dc:	4791                	li	a5,4
    802023de:	02f92023          	sw	a5,32(s2)
  
  // p->killed = SIGTERM;
  // Jump into the scheduler, never to return.
  sched();
    802023e2:	fffff097          	auipc	ra,0xfffff
    802023e6:	782080e7          	jalr	1922(ra) # 80201b64 <sched>
  panic("zombie exit");
    802023ea:	00010517          	auipc	a0,0x10
    802023ee:	e7650513          	addi	a0,a0,-394 # 80212260 <rodata_start+0x260>
    802023f2:	00006097          	auipc	ra,0x6
    802023f6:	2f4080e7          	jalr	756(ra) # 802086e6 <panic>

00000000802023fa <kill>:
  while(1){
  
  }
}

int kill(int pid,int sig){
    802023fa:	7139                	addi	sp,sp,-64
    802023fc:	fc06                	sd	ra,56(sp)
    802023fe:	f822                	sd	s0,48(sp)
    80202400:	f426                	sd	s1,40(sp)
    80202402:	f04a                	sd	s2,32(sp)
    80202404:	ec4e                	sd	s3,24(sp)
    80202406:	e852                	sd	s4,16(sp)
    80202408:	e456                	sd	s5,8(sp)
    8020240a:	0080                	addi	s0,sp,64
    8020240c:	892e                	mv	s2,a1
	struct proc* p;
	for(p = proc; p < &proc[NPROC]; p++){
    8020240e:	00847497          	auipc	s1,0x847
    80202412:	24a48493          	addi	s1,s1,586 # 80a49658 <proc>
    80202416:	00852717          	auipc	a4,0x852
    8020241a:	78270713          	addi	a4,a4,1922 # 80a54b98 <firstuserinit>
		if(p->pid == pid){
    8020241e:	40bc                	lw	a5,64(s1)
    80202420:	00a78763          	beq	a5,a0,8020242e <kill+0x34>
	for(p = proc; p < &proc[NPROC]; p++){
    80202424:	1d048493          	addi	s1,s1,464
    80202428:	fee49be3          	bne	s1,a4,8020241e <kill+0x24>
    8020242c:	a83d                	j	8020246a <kill+0x70>
			acquire(&p->lock);
    8020242e:	00848993          	addi	s3,s1,8
    80202432:	854e                	mv	a0,s3
    80202434:	00006097          	auipc	ra,0x6
    80202438:	f42080e7          	jalr	-190(ra) # 80208376 <acquire>
			if(p->state == SLEEPING){
    8020243c:	5098                	lw	a4,32(s1)
    8020243e:	4785                	li	a5,1
    80202440:	02f70f63          	beq	a4,a5,8020247e <kill+0x84>
				// need to modify...
				queue_del(p);
				readyq_push(p);
				p->state = RUNNABLE;
			}
			p->sig_pending.__val[0] |= 1ul << sig;
    80202444:	4785                	li	a5,1
    80202446:	01279733          	sll	a4,a5,s2
    8020244a:	1984b783          	ld	a5,408(s1)
    8020244e:	8fd9                	or	a5,a5,a4
    80202450:	18f4bc23          	sd	a5,408(s1)
			if (0 == p->killed || sig < p->killed) {
    80202454:	5c9c                	lw	a5,56(s1)
    80202456:	c399                	beqz	a5,8020245c <kill+0x62>
    80202458:	00f95463          	bge	s2,a5,80202460 <kill+0x66>
				p->killed = sig;
    8020245c:	0324ac23          	sw	s2,56(s1)
			}
			release(&p->lock);
    80202460:	854e                	mv	a0,s3
    80202462:	00006097          	auipc	ra,0x6
    80202466:	f68080e7          	jalr	-152(ra) # 802083ca <release>
			return 0;
		}
	}
  //return -ESRCH;
  return 0;
}
    8020246a:	4501                	li	a0,0
    8020246c:	70e2                	ld	ra,56(sp)
    8020246e:	7442                	ld	s0,48(sp)
    80202470:	74a2                	ld	s1,40(sp)
    80202472:	7902                	ld	s2,32(sp)
    80202474:	69e2                	ld	s3,24(sp)
    80202476:	6a42                	ld	s4,16(sp)
    80202478:	6aa2                	ld	s5,8(sp)
    8020247a:	6121                	addi	sp,sp,64
    8020247c:	8082                	ret
	qunlock(q);
	return p;
}

static inline int queue_del(struct proc* p){
	queue* q = (queue*)p->q;
    8020247e:	1784ba03          	ld	s4,376(s1)
	acquire(&q->lk);
    80202482:	008a0a93          	addi	s5,s4,8
    80202486:	8556                	mv	a0,s5
    80202488:	00006097          	auipc	ra,0x6
    8020248c:	eee080e7          	jalr	-274(ra) # 80208376 <acquire>
	struct list* l = &p->dlist;
	qlock(q);
	if(q){
    80202490:	020a0b63          	beqz	s4,802024c6 <kill+0xcc>
	__list_link(node->prev, node->next);
    80202494:	1404b703          	ld	a4,320(s1)
    80202498:	1484b783          	ld	a5,328(s1)
	prev->next = next;
    8020249c:	e71c                	sd	a5,8(a4)
	next->prev = prev;
    8020249e:	e398                	sd	a4,0(a5)
		list_del(l);
		p->q = 0;
    802024a0:	1604bc23          	sd	zero,376(s1)
		p->dlist.prev = NULL;
    802024a4:	1404b023          	sd	zero,320(s1)
		p->dlist.next = NULL;
    802024a8:	1404b423          	sd	zero,328(s1)
	release(&q->lk);
    802024ac:	8556                	mv	a0,s5
    802024ae:	00006097          	auipc	ra,0x6
    802024b2:	f1c080e7          	jalr	-228(ra) # 802083ca <release>
				readyq_push(p);
    802024b6:	8526                	mv	a0,s1
    802024b8:	fffff097          	auipc	ra,0xfffff
    802024bc:	088080e7          	jalr	136(ra) # 80201540 <readyq_push>
				p->state = RUNNABLE;
    802024c0:	4789                	li	a5,2
    802024c2:	d09c                	sw	a5,32(s1)
    802024c4:	b741                	j	80202444 <kill+0x4a>
    802024c6:	8556                	mv	a0,s5
    802024c8:	00006097          	auipc	ra,0x6
    802024cc:	f02080e7          	jalr	-254(ra) # 802083ca <release>
		qunlock(q);	
		return 1;	
	}
	qunlock(q);
	return 0;
    802024d0:	b7dd                	j	802024b6 <kill+0xbc>

00000000802024d2 <tgkill>:
    if(p->pid == pid) return 1;
  }
  return 0;
}

int tgkill(int pid,int tid,int sig){
    802024d2:	872a                	mv	a4,a0
    802024d4:	852e                	mv	a0,a1
    802024d6:	85b2                	mv	a1,a2
  for(p = proc;p < &proc[NPROC];p++){
    802024d8:	00847797          	auipc	a5,0x847
    802024dc:	18078793          	addi	a5,a5,384 # 80a49658 <proc>
    802024e0:	00852697          	auipc	a3,0x852
    802024e4:	6b868693          	addi	a3,a3,1720 # 80a54b98 <firstuserinit>
    if(p->pid == sid) break;
    802024e8:	43b0                	lw	a2,64(a5)
    802024ea:	00a60663          	beq	a2,a0,802024f6 <tgkill+0x24>
  for(p = proc;p < &proc[NPROC];p++){
    802024ee:	1d078793          	addi	a5,a5,464
    802024f2:	fed79be3          	bne	a5,a3,802024e8 <tgkill+0x16>
  return child->parent;
    802024f6:	779c                	ld	a5,40(a5)
    if(!p)break;
    802024f8:	c385                	beqz	a5,80202518 <tgkill+0x46>
    if(p->pid == pid) return 1;
    802024fa:	43b4                	lw	a3,64(a5)
    802024fc:	fee69de3          	bne	a3,a4,802024f6 <tgkill+0x24>
int tgkill(int pid,int tid,int sig){
    80202500:	1141                	addi	sp,sp,-16
    80202502:	e406                	sd	ra,8(sp)
    80202504:	e022                	sd	s0,0(sp)
    80202506:	0800                	addi	s0,sp,16
  if(!cmp_parent(pid,tid)) return -1;
  else return kill(tid,sig);
    80202508:	00000097          	auipc	ra,0x0
    8020250c:	ef2080e7          	jalr	-270(ra) # 802023fa <kill>
}
    80202510:	60a2                	ld	ra,8(sp)
    80202512:	6402                	ld	s0,0(sp)
    80202514:	0141                	addi	sp,sp,16
    80202516:	8082                	ret
  if(!cmp_parent(pid,tid)) return -1;
    80202518:	557d                	li	a0,-1
}
    8020251a:	8082                	ret

000000008020251c <read_fat>:
/**
 * Read the FAT table content corresponded to the given cluster number.
 * @param   cluster     the number of cluster which you want to read its content in FAT table
 */
static uint32 read_fat(struct fs * self_fs, uint32 cluster)
{
    8020251c:	1101                	addi	sp,sp,-32
    8020251e:	ec06                	sd	ra,24(sp)
    80202520:	e822                	sd	s0,16(sp)
    80202522:	e426                	sd	s1,8(sp)
    80202524:	e04a                	sd	s2,0(sp)
    80202526:	1000                	addi	s0,sp,32
    if (cluster >= FAT32_EOC) {
    80202528:	100007b7          	lui	a5,0x10000
    8020252c:	17dd                	addi	a5,a5,-9
        return cluster;
    8020252e:	84ae                	mv	s1,a1
    if (cluster >= FAT32_EOC) {
    80202530:	00b7e863          	bltu	a5,a1,80202540 <read_fat+0x24>
    80202534:	892a                	mv	s2,a0
    }
    if (cluster > self_fs->fat.data_clus_cnt + 1) {     // because cluster number starts at 2, not 0
    80202536:	4d1c                	lw	a5,24(a0)
    80202538:	2785                	addiw	a5,a5,1
        return 0;
    8020253a:	4481                	li	s1,0
    if (cluster > self_fs->fat.data_clus_cnt + 1) {     // because cluster number starts at 2, not 0
    8020253c:	00b7f963          	bgeu	a5,a1,8020254e <read_fat+0x32>
    // here should be a cache layer for FAT table, but not implemented yet.
    struct buf *b = bread(self_fs->devno, fat_sec);
    uint32 next_clus = *(uint32 *)(b->data + fat_offset_of_clus(self_fs, cluster));
    brelse(b);
    return next_clus;
}
    80202540:	8526                	mv	a0,s1
    80202542:	60e2                	ld	ra,24(sp)
    80202544:	6442                	ld	s0,16(sp)
    80202546:	64a2                	ld	s1,8(sp)
    80202548:	6902                	ld	s2,0(sp)
    8020254a:	6105                	addi	sp,sp,32
    8020254c:	8082                	ret
    return self_fs->fat.bpb.rsvd_sec_cnt + (cluster << 2) / self_fs->fat.bpb.byts_per_sec + self_fs->fat.bpb.fat_sz * (fat_num - 1);
    8020254e:	0025949b          	slliw	s1,a1,0x2
    80202552:	02055783          	lhu	a5,32(a0)
    80202556:	02f4d7bb          	divuw	a5,s1,a5
    8020255a:	02455583          	lhu	a1,36(a0)
    struct buf *b = bread(self_fs->devno, fat_sec);
    8020255e:	9dbd                	addw	a1,a1,a5
    80202560:	4108                	lw	a0,0(a0)
    80202562:	ffffe097          	auipc	ra,0xffffe
    80202566:	b96080e7          	jalr	-1130(ra) # 802000f8 <bread>
    return (cluster << 2) % self_fs->fat.bpb.byts_per_sec;
    8020256a:	02095583          	lhu	a1,32(s2)
    8020256e:	02b4f5bb          	remuw	a1,s1,a1
    uint32 next_clus = *(uint32 *)(b->data + fat_offset_of_clus(self_fs, cluster));
    80202572:	1582                	slli	a1,a1,0x20
    80202574:	9181                	srli	a1,a1,0x20
    80202576:	95aa                	add	a1,a1,a0
    80202578:	4da4                	lw	s1,88(a1)
    brelse(b);
    8020257a:	ffffe097          	auipc	ra,0xffffe
    8020257e:	cea080e7          	jalr	-790(ra) # 80200264 <brelse>
    return next_clus;
    80202582:	bf7d                	j	80202540 <read_fat+0x24>

0000000080202584 <alloc_clus>:
        brelse(b);
    }
}

static uint32 alloc_clus(struct fs * self_fs, uint8 dev)
{
    80202584:	715d                	addi	sp,sp,-80
    80202586:	e486                	sd	ra,72(sp)
    80202588:	e0a2                	sd	s0,64(sp)
    8020258a:	fc26                	sd	s1,56(sp)
    8020258c:	f84a                	sd	s2,48(sp)
    8020258e:	f44e                	sd	s3,40(sp)
    80202590:	f052                	sd	s4,32(sp)
    80202592:	ec56                	sd	s5,24(sp)
    80202594:	e85a                	sd	s6,16(sp)
    80202596:	e45e                	sd	s7,8(sp)
    80202598:	e062                	sd	s8,0(sp)
    8020259a:	0880                	addi	s0,sp,80
    // should we keep a free cluster list? instead of searching fat every time.
    struct buf *b;
    uint32 sec = self_fs->fat.bpb.rsvd_sec_cnt;
    8020259c:	02455b83          	lhu	s7,36(a0)
    uint32 const ent_per_sec = self_fs->fat.bpb.byts_per_sec / sizeof(uint32);
    802025a0:	02055983          	lhu	s3,32(a0)
    for (uint32 i = 0; i < self_fs->fat.bpb.fat_sz; i++, sec++) {
    802025a4:	591c                	lw	a5,48(a0)
    802025a6:	cbf5                	beqz	a5,8020269a <alloc_clus+0x116>
    802025a8:	892a                	mv	s2,a0
    802025aa:	0029d99b          	srliw	s3,s3,0x2
    802025ae:	00098a1b          	sext.w	s4,s3
    802025b2:	4b01                	li	s6,0
        b = bread(self_fs->devno, sec);
        for (uint32 j = 0; j < ent_per_sec; j++) {
    802025b4:	4c01                	li	s8,0
    802025b6:	a86d                	j	80202670 <alloc_clus+0xec>
            if (((uint32 *)(b->data))[j] == 0) {
                ((uint32 *)(b->data))[j] = FAT32_EOC + 7;
    802025b8:	100007b7          	lui	a5,0x10000
    802025bc:	37fd                	addiw	a5,a5,-1
    802025be:	c29c                	sw	a5,0(a3)
                bwrite(self_fs->devno, b);
    802025c0:	85d6                	mv	a1,s5
    802025c2:	00092503          	lw	a0,0(s2)
    802025c6:	ffffe097          	auipc	ra,0xffffe
    802025ca:	c3e080e7          	jalr	-962(ra) # 80200204 <bwrite>
                brelse(b);
    802025ce:	8556                	mv	a0,s5
    802025d0:	ffffe097          	auipc	ra,0xffffe
    802025d4:	c94080e7          	jalr	-876(ra) # 80200264 <brelse>
                uint32 clus = i * ent_per_sec + j;
    802025d8:	036989bb          	mulw	s3,s3,s6
    802025dc:	009984bb          	addw	s1,s3,s1
    802025e0:	00048a9b          	sext.w	s5,s1
    return ((cluster - 2) * self_fs->fat.bpb.sec_per_clus) + self_fs->fat.first_data_sec;
    802025e4:	02294783          	lbu	a5,34(s2)
    802025e8:	34f9                	addiw	s1,s1,-2
    802025ea:	02f48a3b          	mulw	s4,s1,a5
    802025ee:	01092703          	lw	a4,16(s2)
    802025f2:	00ea0a3b          	addw	s4,s4,a4
    for (int i = 0; i < self_fs->fat.bpb.sec_per_clus; i++) {
    802025f6:	c7a9                	beqz	a5,80202640 <alloc_clus+0xbc>
    802025f8:	4981                	li	s3,0
        b = bread(self_fs->devno, sec++);
    802025fa:	014985bb          	addw	a1,s3,s4
    802025fe:	00092503          	lw	a0,0(s2)
    80202602:	ffffe097          	auipc	ra,0xffffe
    80202606:	af6080e7          	jalr	-1290(ra) # 802000f8 <bread>
    8020260a:	84aa                	mv	s1,a0
        memset(b->data, 0, BSIZE);
    8020260c:	20000613          	li	a2,512
    80202610:	4581                	li	a1,0
    80202612:	05850513          	addi	a0,a0,88
    80202616:	ffffe097          	auipc	ra,0xffffe
    8020261a:	75e080e7          	jalr	1886(ra) # 80200d74 <memset>
        bwrite(self_fs->devno, b);
    8020261e:	85a6                	mv	a1,s1
    80202620:	00092503          	lw	a0,0(s2)
    80202624:	ffffe097          	auipc	ra,0xffffe
    80202628:	be0080e7          	jalr	-1056(ra) # 80200204 <bwrite>
        brelse(b);
    8020262c:	8526                	mv	a0,s1
    8020262e:	ffffe097          	auipc	ra,0xffffe
    80202632:	c36080e7          	jalr	-970(ra) # 80200264 <brelse>
    for (int i = 0; i < self_fs->fat.bpb.sec_per_clus; i++) {
    80202636:	2985                	addiw	s3,s3,1
    80202638:	02294783          	lbu	a5,34(s2)
    8020263c:	faf9cfe3          	blt	s3,a5,802025fa <alloc_clus+0x76>
            }
        }
        brelse(b);
    }
    panic("no clusters");
}
    80202640:	8556                	mv	a0,s5
    80202642:	60a6                	ld	ra,72(sp)
    80202644:	6406                	ld	s0,64(sp)
    80202646:	74e2                	ld	s1,56(sp)
    80202648:	7942                	ld	s2,48(sp)
    8020264a:	79a2                	ld	s3,40(sp)
    8020264c:	7a02                	ld	s4,32(sp)
    8020264e:	6ae2                	ld	s5,24(sp)
    80202650:	6b42                	ld	s6,16(sp)
    80202652:	6ba2                	ld	s7,8(sp)
    80202654:	6c02                	ld	s8,0(sp)
    80202656:	6161                	addi	sp,sp,80
    80202658:	8082                	ret
        brelse(b);
    8020265a:	8556                	mv	a0,s5
    8020265c:	ffffe097          	auipc	ra,0xffffe
    80202660:	c08080e7          	jalr	-1016(ra) # 80200264 <brelse>
    for (uint32 i = 0; i < self_fs->fat.bpb.fat_sz; i++, sec++) {
    80202664:	2b05                	addiw	s6,s6,1
    80202666:	2b85                	addiw	s7,s7,1
    80202668:	03092783          	lw	a5,48(s2)
    8020266c:	02fb7763          	bgeu	s6,a5,8020269a <alloc_clus+0x116>
        b = bread(self_fs->devno, sec);
    80202670:	85de                	mv	a1,s7
    80202672:	00092503          	lw	a0,0(s2)
    80202676:	ffffe097          	auipc	ra,0xffffe
    8020267a:	a82080e7          	jalr	-1406(ra) # 802000f8 <bread>
    8020267e:	8aaa                	mv	s5,a0
        for (uint32 j = 0; j < ent_per_sec; j++) {
    80202680:	fc0a0de3          	beqz	s4,8020265a <alloc_clus+0xd6>
    80202684:	05850793          	addi	a5,a0,88
    80202688:	84e2                	mv	s1,s8
            if (((uint32 *)(b->data))[j] == 0) {
    8020268a:	86be                	mv	a3,a5
    8020268c:	4398                	lw	a4,0(a5)
    8020268e:	d70d                	beqz	a4,802025b8 <alloc_clus+0x34>
        for (uint32 j = 0; j < ent_per_sec; j++) {
    80202690:	2485                	addiw	s1,s1,1
    80202692:	0791                	addi	a5,a5,4
    80202694:	fe9a1be3          	bne	s4,s1,8020268a <alloc_clus+0x106>
    80202698:	b7c9                	j	8020265a <alloc_clus+0xd6>
    panic("no clusters");
    8020269a:	00010517          	auipc	a0,0x10
    8020269e:	bd650513          	addi	a0,a0,-1066 # 80212270 <rodata_start+0x270>
    802026a2:	00006097          	auipc	ra,0x6
    802026a6:	044080e7          	jalr	68(ra) # 802086e6 <panic>

00000000802026aa <write_fat>:
    if (cluster > self_fs->fat.data_clus_cnt + 1) {
    802026aa:	4d1c                	lw	a5,24(a0)
    802026ac:	2785                	addiw	a5,a5,1
    802026ae:	06b7e963          	bltu	a5,a1,80202720 <write_fat+0x76>
{
    802026b2:	7179                	addi	sp,sp,-48
    802026b4:	f406                	sd	ra,40(sp)
    802026b6:	f022                	sd	s0,32(sp)
    802026b8:	ec26                	sd	s1,24(sp)
    802026ba:	e84a                	sd	s2,16(sp)
    802026bc:	e44e                	sd	s3,8(sp)
    802026be:	e052                	sd	s4,0(sp)
    802026c0:	1800                	addi	s0,sp,48
    802026c2:	892a                	mv	s2,a0
    802026c4:	8a32                	mv	s4,a2
    return self_fs->fat.bpb.rsvd_sec_cnt + (cluster << 2) / self_fs->fat.bpb.byts_per_sec + self_fs->fat.bpb.fat_sz * (fat_num - 1);
    802026c6:	0025949b          	slliw	s1,a1,0x2
    802026ca:	02055783          	lhu	a5,32(a0)
    802026ce:	02f4d7bb          	divuw	a5,s1,a5
    802026d2:	02455583          	lhu	a1,36(a0)
    struct buf *b = bread(self_fs->devno, fat_sec);
    802026d6:	9dbd                	addw	a1,a1,a5
    802026d8:	4108                	lw	a0,0(a0)
    802026da:	ffffe097          	auipc	ra,0xffffe
    802026de:	a1e080e7          	jalr	-1506(ra) # 802000f8 <bread>
    802026e2:	89aa                	mv	s3,a0
    return (cluster << 2) % self_fs->fat.bpb.byts_per_sec;
    802026e4:	02095583          	lhu	a1,32(s2)
    802026e8:	02b4f5bb          	remuw	a1,s1,a1
    *(uint32 *)(b->data + off) = content;
    802026ec:	1582                	slli	a1,a1,0x20
    802026ee:	9181                	srli	a1,a1,0x20
    802026f0:	95aa                	add	a1,a1,a0
    802026f2:	0545ac23          	sw	s4,88(a1)
    bwrite(self_fs->devno, b);
    802026f6:	85aa                	mv	a1,a0
    802026f8:	00092503          	lw	a0,0(s2)
    802026fc:	ffffe097          	auipc	ra,0xffffe
    80202700:	b08080e7          	jalr	-1272(ra) # 80200204 <bwrite>
    brelse(b);
    80202704:	854e                	mv	a0,s3
    80202706:	ffffe097          	auipc	ra,0xffffe
    8020270a:	b5e080e7          	jalr	-1186(ra) # 80200264 <brelse>
    return 0;
    8020270e:	4501                	li	a0,0
}
    80202710:	70a2                	ld	ra,40(sp)
    80202712:	7402                	ld	s0,32(sp)
    80202714:	64e2                	ld	s1,24(sp)
    80202716:	6942                	ld	s2,16(sp)
    80202718:	69a2                	ld	s3,8(sp)
    8020271a:	6a02                	ld	s4,0(sp)
    8020271c:	6145                	addi	sp,sp,48
    8020271e:	8082                	ret
        return -1;
    80202720:	557d                	li	a0,-1
}
    80202722:	8082                	ret

0000000080202724 <reloc_clus>:
 * @param   off         the offset from the beginning of the relative file
 * @param   alloc       whether alloc new cluster when meeting end of FAT chains
 * @return              the offset from the new cur_clus
 */
static int reloc_clus(struct fs * self_fs, struct dirent *entry, uint off, int alloc)
{
    80202724:	715d                	addi	sp,sp,-80
    80202726:	e486                	sd	ra,72(sp)
    80202728:	e0a2                	sd	s0,64(sp)
    8020272a:	fc26                	sd	s1,56(sp)
    8020272c:	f84a                	sd	s2,48(sp)
    8020272e:	f44e                	sd	s3,40(sp)
    80202730:	f052                	sd	s4,32(sp)
    80202732:	ec56                	sd	s5,24(sp)
    80202734:	e85a                	sd	s6,16(sp)
    80202736:	e45e                	sd	s7,8(sp)
    80202738:	e062                	sd	s8,0(sp)
    8020273a:	0880                	addi	s0,sp,80
    8020273c:	89aa                	mv	s3,a0
    8020273e:	84ae                	mv	s1,a1
    80202740:	8ab2                	mv	s5,a2
    int clus_num = off / self_fs->fat.byts_per_clus;
    80202742:	01c52c03          	lw	s8,28(a0)
    80202746:	03865a3b          	divuw	s4,a2,s8
    while (clus_num > entry->clus_cnt) {
    8020274a:	1105a703          	lw	a4,272(a1)
    8020274e:	07477963          	bgeu	a4,s4,802027c0 <reloc_clus+0x9c>
    80202752:	8bb6                	mv	s7,a3
        int clus = read_fat(self_fs, entry->cur_clus);
        if (clus >= FAT32_EOC) {
    80202754:	10000b37          	lui	s6,0x10000
    80202758:	1b5d                	addi	s6,s6,-9
    8020275a:	a025                	j	80202782 <reloc_clus+0x5e>
            if (alloc) {
                clus = alloc_clus(self_fs, entry->dev);
                write_fat(self_fs, entry->cur_clus, clus);
            } else {
                entry->cur_clus = entry->first_clus;
    8020275c:	1044a783          	lw	a5,260(s1)
    80202760:	10f4a623          	sw	a5,268(s1)
                entry->clus_cnt = 0;
    80202764:	1004a823          	sw	zero,272(s1)
                return -1;
    80202768:	557d                	li	a0,-1
    8020276a:	a04d                	j	8020280c <reloc_clus+0xe8>
            }
        }
        entry->cur_clus = clus;
    8020276c:	1124a623          	sw	s2,268(s1)
        entry->clus_cnt++;
    80202770:	1104a783          	lw	a5,272(s1)
    80202774:	2785                	addiw	a5,a5,1
    80202776:	0007871b          	sext.w	a4,a5
    8020277a:	10f4a823          	sw	a5,272(s1)
    while (clus_num > entry->clus_cnt) {
    8020277e:	05477163          	bgeu	a4,s4,802027c0 <reloc_clus+0x9c>
        int clus = read_fat(self_fs, entry->cur_clus);
    80202782:	10c4a583          	lw	a1,268(s1)
    80202786:	854e                	mv	a0,s3
    80202788:	00000097          	auipc	ra,0x0
    8020278c:	d94080e7          	jalr	-620(ra) # 8020251c <read_fat>
    80202790:	0005091b          	sext.w	s2,a0
        if (clus >= FAT32_EOC) {
    80202794:	fd2b5ce3          	bge	s6,s2,8020276c <reloc_clus+0x48>
            if (alloc) {
    80202798:	fc0b82e3          	beqz	s7,8020275c <reloc_clus+0x38>
                clus = alloc_clus(self_fs, entry->dev);
    8020279c:	1144c583          	lbu	a1,276(s1)
    802027a0:	854e                	mv	a0,s3
    802027a2:	00000097          	auipc	ra,0x0
    802027a6:	de2080e7          	jalr	-542(ra) # 80202584 <alloc_clus>
    802027aa:	0005091b          	sext.w	s2,a0
                write_fat(self_fs, entry->cur_clus, clus);
    802027ae:	864a                	mv	a2,s2
    802027b0:	10c4a583          	lw	a1,268(s1)
    802027b4:	854e                	mv	a0,s3
    802027b6:	00000097          	auipc	ra,0x0
    802027ba:	ef4080e7          	jalr	-268(ra) # 802026aa <write_fat>
    802027be:	b77d                	j	8020276c <reloc_clus+0x48>
    }
    if (clus_num < entry->clus_cnt) {
    802027c0:	04ea7263          	bgeu	s4,a4,80202804 <reloc_clus+0xe0>
        entry->cur_clus = entry->first_clus;
    802027c4:	1044a783          	lw	a5,260(s1)
    802027c8:	10f4a623          	sw	a5,268(s1)
        entry->clus_cnt = 0;
    802027cc:	1004a823          	sw	zero,272(s1)
        while (entry->clus_cnt < clus_num) {
    802027d0:	038aea63          	bltu	s5,s8,80202804 <reloc_clus+0xe0>
            entry->cur_clus = read_fat(self_fs, entry->cur_clus);
            if (entry->cur_clus >= FAT32_EOC) {
    802027d4:	10000937          	lui	s2,0x10000
    802027d8:	195d                	addi	s2,s2,-9
            entry->cur_clus = read_fat(self_fs, entry->cur_clus);
    802027da:	10c4a583          	lw	a1,268(s1)
    802027de:	854e                	mv	a0,s3
    802027e0:	00000097          	auipc	ra,0x0
    802027e4:	d3c080e7          	jalr	-708(ra) # 8020251c <read_fat>
    802027e8:	2501                	sext.w	a0,a0
    802027ea:	10a4a623          	sw	a0,268(s1)
            if (entry->cur_clus >= FAT32_EOC) {
    802027ee:	02a96b63          	bltu	s2,a0,80202824 <reloc_clus+0x100>
                panic("reloc_clus");
            }
            entry->clus_cnt++;
    802027f2:	1104a783          	lw	a5,272(s1)
    802027f6:	2785                	addiw	a5,a5,1
    802027f8:	0007871b          	sext.w	a4,a5
    802027fc:	10f4a823          	sw	a5,272(s1)
        while (entry->clus_cnt < clus_num) {
    80202800:	fd476de3          	bltu	a4,s4,802027da <reloc_clus+0xb6>
        }
    }
    return off % self_fs->fat.byts_per_clus;
    80202804:	01c9a503          	lw	a0,28(s3)
    80202808:	02aaf53b          	remuw	a0,s5,a0
}
    8020280c:	60a6                	ld	ra,72(sp)
    8020280e:	6406                	ld	s0,64(sp)
    80202810:	74e2                	ld	s1,56(sp)
    80202812:	7942                	ld	s2,48(sp)
    80202814:	79a2                	ld	s3,40(sp)
    80202816:	7a02                	ld	s4,32(sp)
    80202818:	6ae2                	ld	s5,24(sp)
    8020281a:	6b42                	ld	s6,16(sp)
    8020281c:	6ba2                	ld	s7,8(sp)
    8020281e:	6c02                	ld	s8,0(sp)
    80202820:	6161                	addi	sp,sp,80
    80202822:	8082                	ret
                panic("reloc_clus");
    80202824:	00010517          	auipc	a0,0x10
    80202828:	a5c50513          	addi	a0,a0,-1444 # 80212280 <rodata_start+0x280>
    8020282c:	00006097          	auipc	ra,0x6
    80202830:	eba080e7          	jalr	-326(ra) # 802086e6 <panic>

0000000080202834 <rw_clus>:
{
    80202834:	7119                	addi	sp,sp,-128
    80202836:	fc86                	sd	ra,120(sp)
    80202838:	f8a2                	sd	s0,112(sp)
    8020283a:	f4a6                	sd	s1,104(sp)
    8020283c:	f0ca                	sd	s2,96(sp)
    8020283e:	ecce                	sd	s3,88(sp)
    80202840:	e8d2                	sd	s4,80(sp)
    80202842:	e4d6                	sd	s5,72(sp)
    80202844:	e0da                	sd	s6,64(sp)
    80202846:	fc5e                	sd	s7,56(sp)
    80202848:	f862                	sd	s8,48(sp)
    8020284a:	f466                	sd	s9,40(sp)
    8020284c:	f06a                	sd	s10,32(sp)
    8020284e:	ec6e                	sd	s11,24(sp)
    80202850:	0100                	addi	s0,sp,128
    80202852:	f8d43023          	sd	a3,-128(s0)
    80202856:	8b3a                	mv	s6,a4
    if (off + n > self_fs->fat.byts_per_clus)
    80202858:	010786bb          	addw	a3,a5,a6
    8020285c:	4d58                	lw	a4,28(a0)
    8020285e:	02d76d63          	bltu	a4,a3,80202898 <rw_clus+0x64>
    80202862:	8caa                	mv	s9,a0
    80202864:	8bb2                	mv	s7,a2
    80202866:	8c42                	mv	s8,a6
    uint sec = first_sec_of_clus(self_fs, cluster) + off / self_fs->fat.bpb.byts_per_sec;
    80202868:	02055a83          	lhu	s5,32(a0)
    return ((cluster - 2) * self_fs->fat.bpb.sec_per_clus) + self_fs->fat.first_data_sec;
    8020286c:	ffe5899b          	addiw	s3,a1,-2
    80202870:	02254583          	lbu	a1,34(a0)
    80202874:	02b989bb          	mulw	s3,s3,a1
    80202878:	490c                	lw	a1,16(a0)
    8020287a:	00b989bb          	addw	s3,s3,a1
    uint sec = first_sec_of_clus(self_fs, cluster) + off / self_fs->fat.bpb.byts_per_sec;
    8020287e:	0357d73b          	divuw	a4,a5,s5
    80202882:	00e989bb          	addw	s3,s3,a4
    off = off % self_fs->fat.bpb.byts_per_sec;
    80202886:	0357fabb          	remuw	s5,a5,s5
    for (tot = 0; tot < n; tot += m, off += m, data += m, sec++) {
    8020288a:	0e080963          	beqz	a6,8020297c <rw_clus+0x148>
    8020288e:	4a01                	li	s4,0
        m = BSIZE - off % BSIZE;
    80202890:	20000d93          	li	s11,512
        if (bad == -1) {
    80202894:	5d7d                	li	s10,-1
    80202896:	a0bd                	j	80202904 <rw_clus+0xd0>
        panic("offset out of range");
    80202898:	00010517          	auipc	a0,0x10
    8020289c:	9f850513          	addi	a0,a0,-1544 # 80212290 <rodata_start+0x290>
    802028a0:	00006097          	auipc	ra,0x6
    802028a4:	e46080e7          	jalr	-442(ra) # 802086e6 <panic>
                bwrite(self_fs->devno, bp);
    802028a8:	85ca                	mv	a1,s2
    802028aa:	000ca503          	lw	a0,0(s9)
    802028ae:	ffffe097          	auipc	ra,0xffffe
    802028b2:	956080e7          	jalr	-1706(ra) # 80200204 <bwrite>
        brelse(bp);
    802028b6:	854a                	mv	a0,s2
    802028b8:	ffffe097          	auipc	ra,0xffffe
    802028bc:	9ac080e7          	jalr	-1620(ra) # 80200264 <brelse>
        if (bad == -1) {
    802028c0:	a805                	j	802028f0 <rw_clus+0xbc>
            bad = either_copyout(user, data, bp->data + (off % BSIZE), m);
    802028c2:	05890613          	addi	a2,s2,88 # 10000058 <_entry-0x701fffa8>
    802028c6:	1682                	slli	a3,a3,0x20
    802028c8:	9281                	srli	a3,a3,0x20
    802028ca:	963a                	add	a2,a2,a4
    802028cc:	85da                	mv	a1,s6
    802028ce:	f8043503          	ld	a0,-128(s0)
    802028d2:	00008097          	auipc	ra,0x8
    802028d6:	594080e7          	jalr	1428(ra) # 8020ae66 <either_copyout>
    802028da:	f8a43423          	sd	a0,-120(s0)
        brelse(bp);
    802028de:	854a                	mv	a0,s2
    802028e0:	ffffe097          	auipc	ra,0xffffe
    802028e4:	984080e7          	jalr	-1660(ra) # 80200264 <brelse>
        if (bad == -1) {
    802028e8:	f8843783          	ld	a5,-120(s0)
    802028ec:	07a78863          	beq	a5,s10,8020295c <rw_clus+0x128>
    for (tot = 0; tot < n; tot += m, off += m, data += m, sec++) {
    802028f0:	01448a3b          	addw	s4,s1,s4
    802028f4:	01548abb          	addw	s5,s1,s5
    802028f8:	1482                	slli	s1,s1,0x20
    802028fa:	9081                	srli	s1,s1,0x20
    802028fc:	9b26                	add	s6,s6,s1
    802028fe:	2985                	addiw	s3,s3,1
    80202900:	058a7e63          	bgeu	s4,s8,8020295c <rw_clus+0x128>
        bp = bread(self_fs->devno, sec);
    80202904:	85ce                	mv	a1,s3
    80202906:	000ca503          	lw	a0,0(s9)
    8020290a:	ffffd097          	auipc	ra,0xffffd
    8020290e:	7ee080e7          	jalr	2030(ra) # 802000f8 <bread>
    80202912:	892a                	mv	s2,a0
        m = BSIZE - off % BSIZE;
    80202914:	1ffaf713          	andi	a4,s5,511
    80202918:	40ed863b          	subw	a2,s11,a4
        if (n - tot < m) {
    8020291c:	414c07bb          	subw	a5,s8,s4
    80202920:	86be                	mv	a3,a5
    80202922:	2781                	sext.w	a5,a5
    80202924:	0006059b          	sext.w	a1,a2
    80202928:	00f5f363          	bgeu	a1,a5,8020292e <rw_clus+0xfa>
    8020292c:	86b2                	mv	a3,a2
    8020292e:	0006849b          	sext.w	s1,a3
        if (write) {
    80202932:	f80b88e3          	beqz	s7,802028c2 <rw_clus+0x8e>
            if ((bad = either_copyin(user, bp->data + (off % BSIZE), data, m)) != -1) {
    80202936:	05890593          	addi	a1,s2,88
    8020293a:	1682                	slli	a3,a3,0x20
    8020293c:	9281                	srli	a3,a3,0x20
    8020293e:	865a                	mv	a2,s6
    80202940:	95ba                	add	a1,a1,a4
    80202942:	f8043503          	ld	a0,-128(s0)
    80202946:	00008097          	auipc	ra,0x8
    8020294a:	576080e7          	jalr	1398(ra) # 8020aebc <either_copyin>
    8020294e:	f5a51de3          	bne	a0,s10,802028a8 <rw_clus+0x74>
        brelse(bp);
    80202952:	854a                	mv	a0,s2
    80202954:	ffffe097          	auipc	ra,0xffffe
    80202958:	910080e7          	jalr	-1776(ra) # 80200264 <brelse>
}
    8020295c:	8552                	mv	a0,s4
    8020295e:	70e6                	ld	ra,120(sp)
    80202960:	7446                	ld	s0,112(sp)
    80202962:	74a6                	ld	s1,104(sp)
    80202964:	7906                	ld	s2,96(sp)
    80202966:	69e6                	ld	s3,88(sp)
    80202968:	6a46                	ld	s4,80(sp)
    8020296a:	6aa6                	ld	s5,72(sp)
    8020296c:	6b06                	ld	s6,64(sp)
    8020296e:	7be2                	ld	s7,56(sp)
    80202970:	7c42                	ld	s8,48(sp)
    80202972:	7ca2                	ld	s9,40(sp)
    80202974:	7d02                	ld	s10,32(sp)
    80202976:	6de2                	ld	s11,24(sp)
    80202978:	6109                	addi	sp,sp,128
    8020297a:	8082                	ret
    for (tot = 0; tot < n; tot += m, off += m, data += m, sec++) {
    8020297c:	8a42                	mv	s4,a6
    8020297e:	bff9                	j	8020295c <rw_clus+0x128>

0000000080202980 <eget>:
// by their whole path. But when parsing a path, we open all the directories through it, 
// which forms a linked list from the final file to the self_fs->root. Thus, we use the "parent" pointer 
// to recognize whether an entry with the "name" as given is really the file we want in the right path.
// Should never get self_fs->root by eget, it's easy to understand.
static struct dirent *eget(struct dirent *parent, char *name)
{
    80202980:	715d                	addi	sp,sp,-80
    80202982:	e486                	sd	ra,72(sp)
    80202984:	e0a2                	sd	s0,64(sp)
    80202986:	fc26                	sd	s1,56(sp)
    80202988:	f84a                	sd	s2,48(sp)
    8020298a:	f44e                	sd	s3,40(sp)
    8020298c:	f052                	sd	s4,32(sp)
    8020298e:	ec56                	sd	s5,24(sp)
    80202990:	e85a                	sd	s6,16(sp)
    80202992:	e45e                	sd	s7,8(sp)
    80202994:	e062                	sd	s8,0(sp)
    80202996:	0880                	addi	s0,sp,80
    80202998:	8a2a                	mv	s4,a0
    8020299a:	8bae                	mv	s7,a1
    if(parent->mnt) parent = &(FatFs[parent->dev].root);
    8020299c:	11c52783          	lw	a5,284(a0)
    802029a0:	c385                	beqz	a5,802029c0 <eget+0x40>
    802029a2:	11454a03          	lbu	s4,276(a0)
    802029a6:	6795                	lui	a5,0x5
    802029a8:	9b878713          	addi	a4,a5,-1608 # 49b8 <_entry-0x801fb648>
    802029ac:	02ea0a33          	mul	s4,s4,a4
    802029b0:	83078793          	addi	a5,a5,-2000
    802029b4:	9a3e                	add	s4,s4,a5
    802029b6:	00852517          	auipc	a0,0x852
    802029ba:	1fa50513          	addi	a0,a0,506 # 80a54bb0 <FatFs>
    802029be:	9a2a                	add	s4,s4,a0
    struct fs * self_fs = &FatFs[parent->dev];
    802029c0:	114a4903          	lbu	s2,276(s4)
    802029c4:	00090b1b          	sext.w	s6,s2
    struct dirent *ep;
    acquire(&self_fs->ecache.lock);
    802029c8:	6795                	lui	a5,0x5
    802029ca:	9b878793          	addi	a5,a5,-1608 # 49b8 <_entry-0x801fb648>
    802029ce:	02f90933          	mul	s2,s2,a5
    802029d2:	00852a97          	auipc	s5,0x852
    802029d6:	216a8a93          	addi	s5,s5,534 # 80a54be8 <FatFs+0x38>
    802029da:	9aca                	add	s5,s5,s2
    802029dc:	8556                	mv	a0,s5
    802029de:	00006097          	auipc	ra,0x6
    802029e2:	998080e7          	jalr	-1640(ra) # 80208376 <acquire>
    if (name) {
    802029e6:	080b8063          	beqz	s7,80202a66 <eget+0xe6>
        for (ep = self_fs->root.next; ep != &self_fs->root; ep = ep->next) {          // LRU algo
    802029ea:	00852697          	auipc	a3,0x852
    802029ee:	1c668693          	addi	a3,a3,454 # 80a54bb0 <FatFs>
    802029f2:	6795                	lui	a5,0x5
    802029f4:	9b878713          	addi	a4,a5,-1608 # 49b8 <_entry-0x801fb648>
    802029f8:	02eb0733          	mul	a4,s6,a4
    802029fc:	9736                	add	a4,a4,a3
    802029fe:	973e                	add	a4,a4,a5
    80202a00:	96073483          	ld	s1,-1696(a4)
    80202a04:	83078993          	addi	s3,a5,-2000
    80202a08:	99ca                	add	s3,s3,s2
    80202a0a:	99b6                	add	s3,s3,a3
    80202a0c:	05348d63          	beq	s1,s3,80202a66 <eget+0xe6>
            if (ep->valid == 1 && ep->parent == parent
    80202a10:	4c05                	li	s8,1
    80202a12:	a029                	j	80202a1c <eget+0x9c>
        for (ep = self_fs->root.next; ep != &self_fs->root; ep = ep->next) {          // LRU algo
    80202a14:	1304b483          	ld	s1,304(s1)
    80202a18:	05348763          	beq	s1,s3,80202a66 <eget+0xe6>
            if (ep->valid == 1 && ep->parent == parent
    80202a1c:	11649783          	lh	a5,278(s1)
    80202a20:	ff879ae3          	bne	a5,s8,80202a14 <eget+0x94>
    80202a24:	1284b783          	ld	a5,296(s1)
    80202a28:	ff4796e3          	bne	a5,s4,80202a14 <eget+0x94>
                && strncmp(ep->filename, name, FAT32_MAX_FILENAME) == 0) {
    80202a2c:	0ff00613          	li	a2,255
    80202a30:	85de                	mv	a1,s7
    80202a32:	8526                	mv	a0,s1
    80202a34:	ffffe097          	auipc	ra,0xffffe
    80202a38:	41c080e7          	jalr	1052(ra) # 80200e50 <strncmp>
    80202a3c:	fd61                	bnez	a0,80202a14 <eget+0x94>
                if (ep->ref++ == 0) {
    80202a3e:	1184a783          	lw	a5,280(s1)
    80202a42:	0017871b          	addiw	a4,a5,1
    80202a46:	10e4ac23          	sw	a4,280(s1)
    80202a4a:	eb81                	bnez	a5,80202a5a <eget+0xda>
                    ep->parent->ref++;
    80202a4c:	1284b703          	ld	a4,296(s1)
    80202a50:	11872783          	lw	a5,280(a4)
    80202a54:	2785                	addiw	a5,a5,1
    80202a56:	10f72c23          	sw	a5,280(a4)
                }
                release(&self_fs->ecache.lock);
    80202a5a:	8556                	mv	a0,s5
    80202a5c:	00006097          	auipc	ra,0x6
    80202a60:	96e080e7          	jalr	-1682(ra) # 802083ca <release>
                // edup(ep->parent);
                return ep;
    80202a64:	a0bd                	j	80202ad2 <eget+0x152>
            }
        }
    }
    for (ep = self_fs->root.prev; ep != &self_fs->root; ep = ep->prev) {              // LRU algo
    80202a66:	00852697          	auipc	a3,0x852
    80202a6a:	14a68693          	addi	a3,a3,330 # 80a54bb0 <FatFs>
    80202a6e:	6715                	lui	a4,0x5
    80202a70:	9b870793          	addi	a5,a4,-1608 # 49b8 <_entry-0x801fb648>
    80202a74:	02fb07b3          	mul	a5,s6,a5
    80202a78:	97b6                	add	a5,a5,a3
    80202a7a:	97ba                	add	a5,a5,a4
    80202a7c:	9687b483          	ld	s1,-1688(a5)
    80202a80:	83070713          	addi	a4,a4,-2000
    80202a84:	974a                	add	a4,a4,s2
    80202a86:	9736                	add	a4,a4,a3
    80202a88:	00e48963          	beq	s1,a4,80202a9a <eget+0x11a>
        if (ep->ref == 0) {
    80202a8c:	1184a783          	lw	a5,280(s1)
    80202a90:	cf89                	beqz	a5,80202aaa <eget+0x12a>
    for (ep = self_fs->root.prev; ep != &self_fs->root; ep = ep->prev) {              // LRU algo
    80202a92:	1384b483          	ld	s1,312(s1)
    80202a96:	fee49be3          	bne	s1,a4,80202a8c <eget+0x10c>
            ep->dirty = 0;
            release(&self_fs->ecache.lock);
            return ep;
        }
    }
    panic("eget: insufficient self_fs->ecache");
    80202a9a:	00010517          	auipc	a0,0x10
    80202a9e:	80e50513          	addi	a0,a0,-2034 # 802122a8 <rodata_start+0x2a8>
    80202aa2:	00006097          	auipc	ra,0x6
    80202aa6:	c44080e7          	jalr	-956(ra) # 802086e6 <panic>
            ep->ref = 1;
    80202aaa:	4785                	li	a5,1
    80202aac:	10f4ac23          	sw	a5,280(s1)
            ep->dev = parent->dev;
    80202ab0:	114a4783          	lbu	a5,276(s4)
    80202ab4:	10f48a23          	sb	a5,276(s1)
            ep->off = 0;
    80202ab8:	1204a023          	sw	zero,288(s1)
            ep->valid = 0;
    80202abc:	10049b23          	sh	zero,278(s1)
            ep->mnt = 0;
    80202ac0:	1004ae23          	sw	zero,284(s1)
            ep->dirty = 0;
    80202ac4:	10048aa3          	sb	zero,277(s1)
            release(&self_fs->ecache.lock);
    80202ac8:	8556                	mv	a0,s5
    80202aca:	00006097          	auipc	ra,0x6
    80202ace:	900080e7          	jalr	-1792(ra) # 802083ca <release>
    return 0;
}
    80202ad2:	8526                	mv	a0,s1
    80202ad4:	60a6                	ld	ra,72(sp)
    80202ad6:	6406                	ld	s0,64(sp)
    80202ad8:	74e2                	ld	s1,56(sp)
    80202ada:	7942                	ld	s2,48(sp)
    80202adc:	79a2                	ld	s3,40(sp)
    80202ade:	7a02                	ld	s4,32(sp)
    80202ae0:	6ae2                	ld	s5,24(sp)
    80202ae2:	6b42                	ld	s6,16(sp)
    80202ae4:	6ba2                	ld	s7,8(sp)
    80202ae6:	6c02                	ld	s8,0(sp)
    80202ae8:	6161                	addi	sp,sp,80
    80202aea:	8082                	ret

0000000080202aec <read_entry_name>:
 * @param   buffer      pointer to the array that stores the name
 * @param   raw_entry   pointer to the entry in a sector buffer
 * @param   islong      if non-zero, read as l-n-e, otherwise s-n-e.
 */
static void read_entry_name(char *buffer, union dentry *d)
{
    80202aec:	7179                	addi	sp,sp,-48
    80202aee:	f406                	sd	ra,40(sp)
    80202af0:	f022                	sd	s0,32(sp)
    80202af2:	ec26                	sd	s1,24(sp)
    80202af4:	e84a                	sd	s2,16(sp)
    80202af6:	1800                	addi	s0,sp,48
    80202af8:	84aa                	mv	s1,a0
    80202afa:	892e                	mv	s2,a1
    if (d->lne.attr == ATTR_LONG_NAME) {                       // long entry branch
    80202afc:	00b5c703          	lbu	a4,11(a1)
    80202b00:	47bd                	li	a5,15
    80202b02:	08f70463          	beq	a4,a5,80202b8a <read_entry_name+0x9e>
        snstr(buffer, d->lne.name2, NELEM(d->lne.name2));
        buffer += NELEM(d->lne.name2);
        snstr(buffer, d->lne.name3, NELEM(d->lne.name3));
    } else {
        // assert: only "." and ".." will enter this branch
        memset(buffer, 0, CHAR_SHORT_NAME + 2); // plus '.' and '\0'
    80202b06:	4635                	li	a2,13
    80202b08:	4581                	li	a1,0
    80202b0a:	ffffe097          	auipc	ra,0xffffe
    80202b0e:	26a080e7          	jalr	618(ra) # 80200d74 <memset>
        int i;
        for (i = 0; d->sne.name[i] != ' ' && i < 8; i++) {
    80202b12:	00094703          	lbu	a4,0(s2)
    80202b16:	02000793          	li	a5,32
    80202b1a:	0af70b63          	beq	a4,a5,80202bd0 <read_entry_name+0xe4>
    80202b1e:	4785                	li	a5,1
    80202b20:	02000613          	li	a2,32
    80202b24:	45a5                	li	a1,9
            buffer[i] = d->sne.name[i];
    80202b26:	00f486b3          	add	a3,s1,a5
    80202b2a:	fee68fa3          	sb	a4,-1(a3)
        for (i = 0; d->sne.name[i] != ' ' && i < 8; i++) {
    80202b2e:	0007851b          	sext.w	a0,a5
    80202b32:	00f90733          	add	a4,s2,a5
    80202b36:	00074703          	lbu	a4,0(a4)
    80202b3a:	00c70563          	beq	a4,a2,80202b44 <read_entry_name+0x58>
    80202b3e:	0785                	addi	a5,a5,1
    80202b40:	feb793e3          	bne	a5,a1,80202b26 <read_entry_name+0x3a>
        }
        if (d->sne.name[8] != ' ') {
    80202b44:	00894703          	lbu	a4,8(s2)
    80202b48:	02000793          	li	a5,32
    80202b4c:	00f70963          	beq	a4,a5,80202b5e <read_entry_name+0x72>
            buffer[i++] = '.';
    80202b50:	00a487b3          	add	a5,s1,a0
    80202b54:	02e00713          	li	a4,46
    80202b58:	00e78023          	sb	a4,0(a5)
    80202b5c:	2505                	addiw	a0,a0,1
        }
        for (int j = 8; j < CHAR_SHORT_NAME; j++, i++) {
    80202b5e:	00890793          	addi	a5,s2,8
    80202b62:	94aa                	add	s1,s1,a0
    80202b64:	092d                	addi	s2,s2,11
            if (d->sne.name[j] == ' ') { break; }
    80202b66:	02000693          	li	a3,32
    80202b6a:	0007c703          	lbu	a4,0(a5)
    80202b6e:	00d70863          	beq	a4,a3,80202b7e <read_entry_name+0x92>
            buffer[i] = d->sne.name[j];
    80202b72:	00e48023          	sb	a4,0(s1)
        for (int j = 8; j < CHAR_SHORT_NAME; j++, i++) {
    80202b76:	0785                	addi	a5,a5,1
    80202b78:	0485                	addi	s1,s1,1
    80202b7a:	ff2798e3          	bne	a5,s2,80202b6a <read_entry_name+0x7e>
        }
    }
}
    80202b7e:	70a2                	ld	ra,40(sp)
    80202b80:	7402                	ld	s0,32(sp)
    80202b82:	64e2                	ld	s1,24(sp)
    80202b84:	6942                	ld	s2,16(sp)
    80202b86:	6145                	addi	sp,sp,48
    80202b88:	8082                	ret
        memmove(temp, d->lne.name1, sizeof(temp));
    80202b8a:	4629                	li	a2,10
    80202b8c:	0585                	addi	a1,a1,1
    80202b8e:	fd040513          	addi	a0,s0,-48
    80202b92:	ffffe097          	auipc	ra,0xffffe
    80202b96:	242080e7          	jalr	578(ra) # 80200dd4 <memmove>
        snstr(buffer, temp, NELEM(d->lne.name1));
    80202b9a:	4615                	li	a2,5
    80202b9c:	fd040593          	addi	a1,s0,-48
    80202ba0:	8526                	mv	a0,s1
    80202ba2:	ffffe097          	auipc	ra,0xffffe
    80202ba6:	3b8080e7          	jalr	952(ra) # 80200f5a <snstr>
        snstr(buffer, d->lne.name2, NELEM(d->lne.name2));
    80202baa:	4619                	li	a2,6
    80202bac:	00e90593          	addi	a1,s2,14
    80202bb0:	00548513          	addi	a0,s1,5
    80202bb4:	ffffe097          	auipc	ra,0xffffe
    80202bb8:	3a6080e7          	jalr	934(ra) # 80200f5a <snstr>
        snstr(buffer, d->lne.name3, NELEM(d->lne.name3));
    80202bbc:	4609                	li	a2,2
    80202bbe:	01c90593          	addi	a1,s2,28
    80202bc2:	00b48513          	addi	a0,s1,11
    80202bc6:	ffffe097          	auipc	ra,0xffffe
    80202bca:	394080e7          	jalr	916(ra) # 80200f5a <snstr>
    80202bce:	bf45                	j	80202b7e <read_entry_name+0x92>
        for (i = 0; d->sne.name[i] != ' ' && i < 8; i++) {
    80202bd0:	4501                	li	a0,0
    80202bd2:	bf8d                	j	80202b44 <read_entry_name+0x58>

0000000080202bd4 <fat32_init>:
{
    80202bd4:	7139                	addi	sp,sp,-64
    80202bd6:	fc06                	sd	ra,56(sp)
    80202bd8:	f822                	sd	s0,48(sp)
    80202bda:	f426                	sd	s1,40(sp)
    80202bdc:	f04a                	sd	s2,32(sp)
    80202bde:	ec4e                	sd	s3,24(sp)
    80202be0:	e852                	sd	s4,16(sp)
    80202be2:	e456                	sd	s5,8(sp)
    80202be4:	e05a                	sd	s6,0(sp)
    80202be6:	0080                	addi	s0,sp,64
    80202be8:	892a                	mv	s2,a0
    if(!debug_output)
    80202bea:	00869797          	auipc	a5,0x869
    80202bee:	05e7a783          	lw	a5,94(a5) # 80a6bc48 <debug_output>
    80202bf2:	1c078063          	beqz	a5,80202db2 <fat32_init+0x1de>
    if(self_fs->valid)return -1;
    80202bf6:	00492783          	lw	a5,4(s2)
    80202bfa:	26079763          	bnez	a5,80202e68 <fat32_init+0x294>
    else self_fs->valid = 1;
    80202bfe:	4785                	li	a5,1
    80202c00:	00f92223          	sw	a5,4(s2)
    self_fs->disk_init(self_fs->image);
    80202c04:	6795                	lui	a5,0x5
    80202c06:	97ca                	add	a5,a5,s2
    80202c08:	9a07b783          	ld	a5,-1632(a5) # 49a0 <_entry-0x801fb660>
    80202c0c:	00893503          	ld	a0,8(s2)
    80202c10:	9782                	jalr	a5
    struct buf *b = bread(self_fs->devno, 0);
    80202c12:	4581                	li	a1,0
    80202c14:	00092503          	lw	a0,0(s2)
    80202c18:	ffffd097          	auipc	ra,0xffffd
    80202c1c:	4e0080e7          	jalr	1248(ra) # 802000f8 <bread>
    80202c20:	84aa                	mv	s1,a0
    if (strncmp((char const*)(b->data + 82), "FAT32", 5))
    80202c22:	4615                	li	a2,5
    80202c24:	0000f597          	auipc	a1,0xf
    80202c28:	6cc58593          	addi	a1,a1,1740 # 802122f0 <rodata_start+0x2f0>
    80202c2c:	0aa50513          	addi	a0,a0,170
    80202c30:	ffffe097          	auipc	ra,0xffffe
    80202c34:	220080e7          	jalr	544(ra) # 80200e50 <strncmp>
    80202c38:	8b2a                	mv	s6,a0
    80202c3a:	18051a63          	bnez	a0,80202dce <fat32_init+0x1fa>
    memmove(&self_fs->fat.bpb.byts_per_sec, b->data + 11, 2);            // avoid misaligned load on k210
    80202c3e:	4609                	li	a2,2
    80202c40:	06348593          	addi	a1,s1,99
    80202c44:	02090513          	addi	a0,s2,32
    80202c48:	ffffe097          	auipc	ra,0xffffe
    80202c4c:	18c080e7          	jalr	396(ra) # 80200dd4 <memmove>
    self_fs->fat.bpb.sec_per_clus = *(b->data + 13);
    80202c50:	0654c683          	lbu	a3,101(s1)
    80202c54:	02d90123          	sb	a3,34(s2)
    self_fs->fat.bpb.rsvd_sec_cnt = *(uint16 *)(b->data + 14);
    80202c58:	0664d603          	lhu	a2,102(s1)
    80202c5c:	02c91223          	sh	a2,36(s2)
    self_fs->fat.bpb.fat_cnt = *(b->data + 16);
    80202c60:	0684c703          	lbu	a4,104(s1)
    80202c64:	02e90323          	sb	a4,38(s2)
    self_fs->fat.bpb.hidd_sec = *(uint32 *)(b->data + 28);
    80202c68:	58fc                	lw	a5,116(s1)
    80202c6a:	02f92423          	sw	a5,40(s2)
    self_fs->fat.bpb.tot_sec = *(uint32 *)(b->data + 32);
    80202c6e:	5cbc                	lw	a5,120(s1)
    80202c70:	02f92623          	sw	a5,44(s2)
    self_fs->fat.bpb.fat_sz = *(uint32 *)(b->data + 36);
    80202c74:	5cec                	lw	a1,124(s1)
    80202c76:	02b92823          	sw	a1,48(s2)
    self_fs->fat.bpb.root_clus = *(uint32 *)(b->data + 44);
    80202c7a:	0844a503          	lw	a0,132(s1)
    80202c7e:	02a92a23          	sw	a0,52(s2)
    self_fs->fat.first_data_sec = self_fs->fat.bpb.rsvd_sec_cnt + self_fs->fat.bpb.fat_cnt * self_fs->fat.bpb.fat_sz;
    80202c82:	02b7073b          	mulw	a4,a4,a1
    80202c86:	9f31                	addw	a4,a4,a2
    80202c88:	00e92823          	sw	a4,16(s2)
    self_fs->fat.data_sec_cnt = self_fs->fat.bpb.tot_sec - self_fs->fat.first_data_sec;
    80202c8c:	9f99                	subw	a5,a5,a4
    80202c8e:	00f92a23          	sw	a5,20(s2)
    self_fs->fat.data_clus_cnt = self_fs->fat.data_sec_cnt / self_fs->fat.bpb.sec_per_clus;
    80202c92:	02d7d7bb          	divuw	a5,a5,a3
    80202c96:	00f92c23          	sw	a5,24(s2)
    self_fs->fat.byts_per_clus = self_fs->fat.bpb.sec_per_clus * self_fs->fat.bpb.byts_per_sec;
    80202c9a:	02095783          	lhu	a5,32(s2)
    80202c9e:	02d787bb          	mulw	a5,a5,a3
    80202ca2:	00f92e23          	sw	a5,28(s2)
    brelse(b);
    80202ca6:	8526                	mv	a0,s1
    80202ca8:	ffffd097          	auipc	ra,0xffffd
    80202cac:	5bc080e7          	jalr	1468(ra) # 80200264 <brelse>
    if(!debug_output){
    80202cb0:	00869797          	auipc	a5,0x869
    80202cb4:	f987a783          	lw	a5,-104(a5) # 80a6bc48 <debug_output>
    80202cb8:	12078363          	beqz	a5,80202dde <fat32_init+0x20a>
    debug_output = 1;
    80202cbc:	4785                	li	a5,1
    80202cbe:	00869717          	auipc	a4,0x869
    80202cc2:	f8f72523          	sw	a5,-118(a4) # 80a6bc48 <debug_output>
    if (BSIZE != self_fs->fat.bpb.byts_per_sec) 
    80202cc6:	02095703          	lhu	a4,32(s2)
    80202cca:	20000793          	li	a5,512
    80202cce:	18f71563          	bne	a4,a5,80202e58 <fat32_init+0x284>
    initlock(&self_fs->ecache.lock, "self_fs->ecache");
    80202cd2:	0000f597          	auipc	a1,0xf
    80202cd6:	70e58593          	addi	a1,a1,1806 # 802123e0 <rodata_start+0x3e0>
